

Microchip MPLAB XC8 Assembler V2.32 build 20210201212658 
                                                                                               Fri Sep 10 02:12:45 2021

Microchip MPLAB XC8 C Compiler v2.32 (Free license) build 20210201212658 Og1 
     1                           	processor	16F1827
     2                           	pagewidth 120
     3                           	opt	flic
     4                           	psect	cinit,global,class=CODE,merge=1,delta=2
     5                           	psect	bssCOMMON,global,class=COMMON,space=1,delta=1,noexec
     6                           	psect	bssBANK0,global,class=BANK0,space=1,delta=1,noexec
     7                           	psect	bssBANK1,global,class=BANK1,space=1,delta=1,noexec
     8                           	psect	cstackBANK1,global,class=BANK1,space=1,delta=1,noexec
     9                           	psect	cstackCOMMON,global,class=COMMON,space=1,delta=1,noexec
    10                           	psect	cstackBANK0,global,class=BANK0,space=1,delta=1,noexec
    11                           	psect	maintext,global,class=CODE,merge=1,split=1,delta=2
    12                           	psect	text1,local,class=CODE,merge=1,delta=2
    13                           	psect	text2,local,class=CODE,merge=1,delta=2
    14                           	psect	text3,local,class=CODE,merge=1,delta=2
    15                           	psect	text4,local,class=CODE,merge=1,delta=2
    16                           	psect	text5,local,class=CODE,merge=1,delta=2
    17                           	psect	text6,local,class=CODE,merge=1,delta=2
    18                           	psect	text7,local,class=CODE,merge=1,delta=2
    19                           	psect	text8,local,class=CODE,merge=1,delta=2
    20                           	psect	text9,local,class=CODE,merge=1,delta=2
    21                           	psect	text10,local,class=CODE,merge=1,delta=2
    22                           	psect	text11,local,class=CODE,merge=1,delta=2
    23                           	psect	text12,local,class=CODE,merge=1,delta=2
    24                           	psect	text13,local,class=CODE,merge=1,delta=2
    25                           	psect	text14,local,class=CODE,merge=1,delta=2
    26                           	psect	text15,local,class=CODE,merge=1,delta=2
    27                           	psect	text16,local,class=CODE,merge=1,delta=2
    28                           	psect	text17,local,class=CODE,merge=1,delta=2
    29                           	psect	text18,local,class=CODE,merge=1,delta=2
    30                           	psect	text19,local,class=CODE,merge=1,delta=2
    31                           	psect	text20,local,class=CODE,merge=1,delta=2
    32                           	psect	text21,local,class=CODE,merge=1,delta=2
    33                           	psect	text22,local,class=CODE,merge=1,delta=2
    34                           	psect	text23,local,class=CODE,merge=1,delta=2
    35                           	psect	text24,local,class=CODE,merge=1,delta=2
    36                           	psect	text25,local,class=CODE,merge=1,delta=2,group=1
    37                           	psect	text26,local,class=CODE,merge=1,delta=2,group=1
    38                           	psect	text27,local,class=CODE,merge=1,delta=2
    39                           	psect	text28,local,class=CODE,merge=1,delta=2,group=1
    40                           	psect	text29,local,class=CODE,merge=1,delta=2,group=1
    41                           	psect	text30,local,class=CODE,merge=1,delta=2,group=1
    42                           	psect	text31,local,class=CODE,merge=1,delta=2,group=1
    43                           	psect	text32,local,class=CODE,merge=1,delta=2
    44                           	psect	intentry,global,class=CODE,delta=2
    45                           	psect	text34,local,class=CODE,merge=1,delta=2
    46                           	psect	text35,local,class=CODE,merge=1,delta=2
    47                           	psect	text36,local,class=CODE,merge=1,delta=2
    48                           	psect	text37,local,class=CODE,merge=1,delta=2
    49                           	psect	text38,local,class=CODE,merge=1,delta=2
    50                           	psect	text39,local,class=CODE,merge=1,delta=2
    51                           	psect	text40,local,class=CODE,merge=1,delta=2
    52                           	psect	config,global,abs,ovrld,class=CONFIG,space=4,delta=2,noexec
    53                           	dabs	1,0x7E,2
    54  0000                     
    55                           ; Version 2.20
    56                           ; Generated 12/02/2020 GMT
    57                           ; 
    58                           ; Copyright © 2020, Microchip Technology Inc. and its subsidiaries ("Microchip")
    59                           ; All rights reserved.
    60                           ; 
    61                           ; This software is developed by Microchip Technology Inc. and its subsidiaries ("Microch
      +                          ip").
    62                           ; 
    63                           ; Redistribution and use in source and binary forms, with or without modification, are
    64                           ; permitted provided that the following conditions are met:
    65                           ; 
    66                           ;     1. Redistributions of source code must retain the above copyright notice, this lis
      +                          t of
    67                           ;        conditions and the following disclaimer.
    68                           ; 
    69                           ;     2. Redistributions in binary form must reproduce the above copyright notice, this 
      +                          list
    70                           ;        of conditions and the following disclaimer in the documentation and/or other
    71                           ;        materials provided with the distribution.
    72                           ; 
    73                           ;     3. Microchip's name may not be used to endorse or promote products derived from th
      +                          is
    74                           ;        software without specific prior written permission.
    75                           ; 
    76                           ; THIS SOFTWARE IS PROVIDED BY MICROCHIP "AS IS" AND ANY EXPRESS OR IMPLIED WARRANTIES,
    77                           ; INCLUDING, BUT NOT LIMITED TO, THE IMPLIED WARRANTIES OF MERCHANTABILITY AND FITNESS F
      +                          OR
    78                           ; PURPOSE ARE DISCLAIMED.  IN NO EVENT SHALL MICROCHIP BE LIABLE FOR ANY DIRECT, INDIREC
      +                          T,
    79                           ; INCIDENTAL, SPECIAL, EXEMPLARY, OR CONSEQUENTIAL DAMAGES (INCLUDING BUT NOT LIMITED TO
    80                           ; PROCUREMENT OF SUBSTITUTE GOODS OR SERVICES; LOSS OF USE, DATA OR PROFITS; OR BUSINESS
    81                           ; INTERRUPTION) HOWSOEVER CAUSED AND ON ANY THEORY OF LIABILITY, WHETHER IN CONTRACT, ST
      +                          RICT
    82                           ; LIABILITY, OR TORT (INCLUDING NEGLIGENCE OR OTHERWISE) ARISING IN ANY WAY OUT OF THE U
      +                          SE OF
    83                           ; THIS SOFTWARE, EVEN IF ADVISED OF THE POSSIBILITY OF SUCH DAMAGE.
    84                           ; 
    85                           ; 
    86                           ; Code-generator required, PIC16F1827 Definitions
    87                           ; 
    88                           ; SFR Addresses
    89  0000                     	;# 
    90  0001                     	;# 
    91  0002                     	;# 
    92  0003                     	;# 
    93  0004                     	;# 
    94  0005                     	;# 
    95  0006                     	;# 
    96  0007                     	;# 
    97  0008                     	;# 
    98  0009                     	;# 
    99  000A                     	;# 
   100  000B                     	;# 
   101  000C                     	;# 
   102  000D                     	;# 
   103  0011                     	;# 
   104  0012                     	;# 
   105  0013                     	;# 
   106  0014                     	;# 
   107  0015                     	;# 
   108  0016                     	;# 
   109  0016                     	;# 
   110  0017                     	;# 
   111  0018                     	;# 
   112  0019                     	;# 
   113  001A                     	;# 
   114  001B                     	;# 
   115  001C                     	;# 
   116  001E                     	;# 
   117  001F                     	;# 
   118  008C                     	;# 
   119  008D                     	;# 
   120  0091                     	;# 
   121  0092                     	;# 
   122  0093                     	;# 
   123  0094                     	;# 
   124  0095                     	;# 
   125  0096                     	;# 
   126  0097                     	;# 
   127  0098                     	;# 
   128  0099                     	;# 
   129  009A                     	;# 
   130  009B                     	;# 
   131  009B                     	;# 
   132  009C                     	;# 
   133  009D                     	;# 
   134  009E                     	;# 
   135  010C                     	;# 
   136  010D                     	;# 
   137  0111                     	;# 
   138  0112                     	;# 
   139  0113                     	;# 
   140  0114                     	;# 
   141  0115                     	;# 
   142  0116                     	;# 
   143  0117                     	;# 
   144  0118                     	;# 
   145  0119                     	;# 
   146  011A                     	;# 
   147  011B                     	;# 
   148  011D                     	;# 
   149  011E                     	;# 
   150  018C                     	;# 
   151  018D                     	;# 
   152  0191                     	;# 
   153  0191                     	;# 
   154  0192                     	;# 
   155  0193                     	;# 
   156  0193                     	;# 
   157  0193                     	;# 
   158  0194                     	;# 
   159  0195                     	;# 
   160  0196                     	;# 
   161  0199                     	;# 
   162  019A                     	;# 
   163  019B                     	;# 
   164  019B                     	;# 
   165  019B                     	;# 
   166  019B                     	;# 
   167  019C                     	;# 
   168  019C                     	;# 
   169  019D                     	;# 
   170  019E                     	;# 
   171  019F                     	;# 
   172  020C                     	;# 
   173  020D                     	;# 
   174  0211                     	;# 
   175  0211                     	;# 
   176  0212                     	;# 
   177  0212                     	;# 
   178  0213                     	;# 
   179  0213                     	;# 
   180  0214                     	;# 
   181  0214                     	;# 
   182  0215                     	;# 
   183  0215                     	;# 
   184  0215                     	;# 
   185  0216                     	;# 
   186  0216                     	;# 
   187  0217                     	;# 
   188  0217                     	;# 
   189  0219                     	;# 
   190  021A                     	;# 
   191  021B                     	;# 
   192  021C                     	;# 
   193  021D                     	;# 
   194  021E                     	;# 
   195  021F                     	;# 
   196  0291                     	;# 
   197  0291                     	;# 
   198  0292                     	;# 
   199  0293                     	;# 
   200  0294                     	;# 
   201  0295                     	;# 
   202  0295                     	;# 
   203  0296                     	;# 
   204  0298                     	;# 
   205  0298                     	;# 
   206  0299                     	;# 
   207  029A                     	;# 
   208  029B                     	;# 
   209  029C                     	;# 
   210  029C                     	;# 
   211  029D                     	;# 
   212  029E                     	;# 
   213  029E                     	;# 
   214  0311                     	;# 
   215  0311                     	;# 
   216  0312                     	;# 
   217  0313                     	;# 
   218  0318                     	;# 
   219  0318                     	;# 
   220  0319                     	;# 
   221  031A                     	;# 
   222  0394                     	;# 
   223  0395                     	;# 
   224  0396                     	;# 
   225  039A                     	;# 
   226  039C                     	;# 
   227  039D                     	;# 
   228  039E                     	;# 
   229  039F                     	;# 
   230  0415                     	;# 
   231  0416                     	;# 
   232  0417                     	;# 
   233  041C                     	;# 
   234  041D                     	;# 
   235  041E                     	;# 
   236  0FE4                     	;# 
   237  0FE5                     	;# 
   238  0FE6                     	;# 
   239  0FE7                     	;# 
   240  0FE8                     	;# 
   241  0FE9                     	;# 
   242  0FEA                     	;# 
   243  0FEB                     	;# 
   244  0FED                     	;# 
   245  0FEE                     	;# 
   246  0FEF                     	;# 
   247  0000                     	;# 
   248  0001                     	;# 
   249  0002                     	;# 
   250  0003                     	;# 
   251  0004                     	;# 
   252  0005                     	;# 
   253  0006                     	;# 
   254  0007                     	;# 
   255  0008                     	;# 
   256  0009                     	;# 
   257  000A                     	;# 
   258  000B                     	;# 
   259  000C                     	;# 
   260  000D                     	;# 
   261  0011                     	;# 
   262  0012                     	;# 
   263  0013                     	;# 
   264  0014                     	;# 
   265  0015                     	;# 
   266  0016                     	;# 
   267  0016                     	;# 
   268  0017                     	;# 
   269  0018                     	;# 
   270  0019                     	;# 
   271  001A                     	;# 
   272  001B                     	;# 
   273  001C                     	;# 
   274  001E                     	;# 
   275  001F                     	;# 
   276  008C                     	;# 
   277  008D                     	;# 
   278  0091                     	;# 
   279  0092                     	;# 
   280  0093                     	;# 
   281  0094                     	;# 
   282  0095                     	;# 
   283  0096                     	;# 
   284  0097                     	;# 
   285  0098                     	;# 
   286  0099                     	;# 
   287  009A                     	;# 
   288  009B                     	;# 
   289  009B                     	;# 
   290  009C                     	;# 
   291  009D                     	;# 
   292  009E                     	;# 
   293  010C                     	;# 
   294  010D                     	;# 
   295  0111                     	;# 
   296  0112                     	;# 
   297  0113                     	;# 
   298  0114                     	;# 
   299  0115                     	;# 
   300  0116                     	;# 
   301  0117                     	;# 
   302  0118                     	;# 
   303  0119                     	;# 
   304  011A                     	;# 
   305  011B                     	;# 
   306  011D                     	;# 
   307  011E                     	;# 
   308  018C                     	;# 
   309  018D                     	;# 
   310  0191                     	;# 
   311  0191                     	;# 
   312  0192                     	;# 
   313  0193                     	;# 
   314  0193                     	;# 
   315  0193                     	;# 
   316  0194                     	;# 
   317  0195                     	;# 
   318  0196                     	;# 
   319  0199                     	;# 
   320  019A                     	;# 
   321  019B                     	;# 
   322  019B                     	;# 
   323  019B                     	;# 
   324  019B                     	;# 
   325  019C                     	;# 
   326  019C                     	;# 
   327  019D                     	;# 
   328  019E                     	;# 
   329  019F                     	;# 
   330  020C                     	;# 
   331  020D                     	;# 
   332  0211                     	;# 
   333  0211                     	;# 
   334  0212                     	;# 
   335  0212                     	;# 
   336  0213                     	;# 
   337  0213                     	;# 
   338  0214                     	;# 
   339  0214                     	;# 
   340  0215                     	;# 
   341  0215                     	;# 
   342  0215                     	;# 
   343  0216                     	;# 
   344  0216                     	;# 
   345  0217                     	;# 
   346  0217                     	;# 
   347  0219                     	;# 
   348  021A                     	;# 
   349  021B                     	;# 
   350  021C                     	;# 
   351  021D                     	;# 
   352  021E                     	;# 
   353  021F                     	;# 
   354  0291                     	;# 
   355  0291                     	;# 
   356  0292                     	;# 
   357  0293                     	;# 
   358  0294                     	;# 
   359  0295                     	;# 
   360  0295                     	;# 
   361  0296                     	;# 
   362  0298                     	;# 
   363  0298                     	;# 
   364  0299                     	;# 
   365  029A                     	;# 
   366  029B                     	;# 
   367  029C                     	;# 
   368  029C                     	;# 
   369  029D                     	;# 
   370  029E                     	;# 
   371  029E                     	;# 
   372  0311                     	;# 
   373  0311                     	;# 
   374  0312                     	;# 
   375  0313                     	;# 
   376  0318                     	;# 
   377  0318                     	;# 
   378  0319                     	;# 
   379  031A                     	;# 
   380  0394                     	;# 
   381  0395                     	;# 
   382  0396                     	;# 
   383  039A                     	;# 
   384  039C                     	;# 
   385  039D                     	;# 
   386  039E                     	;# 
   387  039F                     	;# 
   388  0415                     	;# 
   389  0416                     	;# 
   390  0417                     	;# 
   391  041C                     	;# 
   392  041D                     	;# 
   393  041E                     	;# 
   394  0FE4                     	;# 
   395  0FE5                     	;# 
   396  0FE6                     	;# 
   397  0FE7                     	;# 
   398  0FE8                     	;# 
   399  0FE9                     	;# 
   400  0FEA                     	;# 
   401  0FEB                     	;# 
   402  0FED                     	;# 
   403  0FEE                     	;# 
   404  0FEF                     	;# 
   405  0000                     	;# 
   406  0001                     	;# 
   407  0002                     	;# 
   408  0003                     	;# 
   409  0004                     	;# 
   410  0005                     	;# 
   411  0006                     	;# 
   412  0007                     	;# 
   413  0008                     	;# 
   414  0009                     	;# 
   415  000A                     	;# 
   416  000B                     	;# 
   417  000C                     	;# 
   418  000D                     	;# 
   419  0011                     	;# 
   420  0012                     	;# 
   421  0013                     	;# 
   422  0014                     	;# 
   423  0015                     	;# 
   424  0016                     	;# 
   425  0016                     	;# 
   426  0017                     	;# 
   427  0018                     	;# 
   428  0019                     	;# 
   429  001A                     	;# 
   430  001B                     	;# 
   431  001C                     	;# 
   432  001E                     	;# 
   433  001F                     	;# 
   434  008C                     	;# 
   435  008D                     	;# 
   436  0091                     	;# 
   437  0092                     	;# 
   438  0093                     	;# 
   439  0094                     	;# 
   440  0095                     	;# 
   441  0096                     	;# 
   442  0097                     	;# 
   443  0098                     	;# 
   444  0099                     	;# 
   445  009A                     	;# 
   446  009B                     	;# 
   447  009B                     	;# 
   448  009C                     	;# 
   449  009D                     	;# 
   450  009E                     	;# 
   451  010C                     	;# 
   452  010D                     	;# 
   453  0111                     	;# 
   454  0112                     	;# 
   455  0113                     	;# 
   456  0114                     	;# 
   457  0115                     	;# 
   458  0116                     	;# 
   459  0117                     	;# 
   460  0118                     	;# 
   461  0119                     	;# 
   462  011A                     	;# 
   463  011B                     	;# 
   464  011D                     	;# 
   465  011E                     	;# 
   466  018C                     	;# 
   467  018D                     	;# 
   468  0191                     	;# 
   469  0191                     	;# 
   470  0192                     	;# 
   471  0193                     	;# 
   472  0193                     	;# 
   473  0193                     	;# 
   474  0194                     	;# 
   475  0195                     	;# 
   476  0196                     	;# 
   477  0199                     	;# 
   478  019A                     	;# 
   479  019B                     	;# 
   480  019B                     	;# 
   481  019B                     	;# 
   482  019B                     	;# 
   483  019C                     	;# 
   484  019C                     	;# 
   485  019D                     	;# 
   486  019E                     	;# 
   487  019F                     	;# 
   488  020C                     	;# 
   489  020D                     	;# 
   490  0211                     	;# 
   491  0211                     	;# 
   492  0212                     	;# 
   493  0212                     	;# 
   494  0213                     	;# 
   495  0213                     	;# 
   496  0214                     	;# 
   497  0214                     	;# 
   498  0215                     	;# 
   499  0215                     	;# 
   500  0215                     	;# 
   501  0216                     	;# 
   502  0216                     	;# 
   503  0217                     	;# 
   504  0217                     	;# 
   505  0219                     	;# 
   506  021A                     	;# 
   507  021B                     	;# 
   508  021C                     	;# 
   509  021D                     	;# 
   510  021E                     	;# 
   511  021F                     	;# 
   512  0291                     	;# 
   513  0291                     	;# 
   514  0292                     	;# 
   515  0293                     	;# 
   516  0294                     	;# 
   517  0295                     	;# 
   518  0295                     	;# 
   519  0296                     	;# 
   520  0298                     	;# 
   521  0298                     	;# 
   522  0299                     	;# 
   523  029A                     	;# 
   524  029B                     	;# 
   525  029C                     	;# 
   526  029C                     	;# 
   527  029D                     	;# 
   528  029E                     	;# 
   529  029E                     	;# 
   530  0311                     	;# 
   531  0311                     	;# 
   532  0312                     	;# 
   533  0313                     	;# 
   534  0318                     	;# 
   535  0318                     	;# 
   536  0319                     	;# 
   537  031A                     	;# 
   538  0394                     	;# 
   539  0395                     	;# 
   540  0396                     	;# 
   541  039A                     	;# 
   542  039C                     	;# 
   543  039D                     	;# 
   544  039E                     	;# 
   545  039F                     	;# 
   546  0415                     	;# 
   547  0416                     	;# 
   548  0417                     	;# 
   549  041C                     	;# 
   550  041D                     	;# 
   551  041E                     	;# 
   552  0FE4                     	;# 
   553  0FE5                     	;# 
   554  0FE6                     	;# 
   555  0FE7                     	;# 
   556  0FE8                     	;# 
   557  0FE9                     	;# 
   558  0FEA                     	;# 
   559  0FEB                     	;# 
   560  0FED                     	;# 
   561  0FEE                     	;# 
   562  0FEF                     	;# 
   563  0000                     	;# 
   564  0001                     	;# 
   565  0002                     	;# 
   566  0003                     	;# 
   567  0004                     	;# 
   568  0005                     	;# 
   569  0006                     	;# 
   570  0007                     	;# 
   571  0008                     	;# 
   572  0009                     	;# 
   573  000A                     	;# 
   574  000B                     	;# 
   575  000C                     	;# 
   576  000D                     	;# 
   577  0011                     	;# 
   578  0012                     	;# 
   579  0013                     	;# 
   580  0014                     	;# 
   581  0015                     	;# 
   582  0016                     	;# 
   583  0016                     	;# 
   584  0017                     	;# 
   585  0018                     	;# 
   586  0019                     	;# 
   587  001A                     	;# 
   588  001B                     	;# 
   589  001C                     	;# 
   590  001E                     	;# 
   591  001F                     	;# 
   592  008C                     	;# 
   593  008D                     	;# 
   594  0091                     	;# 
   595  0092                     	;# 
   596  0093                     	;# 
   597  0094                     	;# 
   598  0095                     	;# 
   599  0096                     	;# 
   600  0097                     	;# 
   601  0098                     	;# 
   602  0099                     	;# 
   603  009A                     	;# 
   604  009B                     	;# 
   605  009B                     	;# 
   606  009C                     	;# 
   607  009D                     	;# 
   608  009E                     	;# 
   609  010C                     	;# 
   610  010D                     	;# 
   611  0111                     	;# 
   612  0112                     	;# 
   613  0113                     	;# 
   614  0114                     	;# 
   615  0115                     	;# 
   616  0116                     	;# 
   617  0117                     	;# 
   618  0118                     	;# 
   619  0119                     	;# 
   620  011A                     	;# 
   621  011B                     	;# 
   622  011D                     	;# 
   623  011E                     	;# 
   624  018C                     	;# 
   625  018D                     	;# 
   626  0191                     	;# 
   627  0191                     	;# 
   628  0192                     	;# 
   629  0193                     	;# 
   630  0193                     	;# 
   631  0193                     	;# 
   632  0194                     	;# 
   633  0195                     	;# 
   634  0196                     	;# 
   635  0199                     	;# 
   636  019A                     	;# 
   637  019B                     	;# 
   638  019B                     	;# 
   639  019B                     	;# 
   640  019B                     	;# 
   641  019C                     	;# 
   642  019C                     	;# 
   643  019D                     	;# 
   644  019E                     	;# 
   645  019F                     	;# 
   646  020C                     	;# 
   647  020D                     	;# 
   648  0211                     	;# 
   649  0211                     	;# 
   650  0212                     	;# 
   651  0212                     	;# 
   652  0213                     	;# 
   653  0213                     	;# 
   654  0214                     	;# 
   655  0214                     	;# 
   656  0215                     	;# 
   657  0215                     	;# 
   658  0215                     	;# 
   659  0216                     	;# 
   660  0216                     	;# 
   661  0217                     	;# 
   662  0217                     	;# 
   663  0219                     	;# 
   664  021A                     	;# 
   665  021B                     	;# 
   666  021C                     	;# 
   667  021D                     	;# 
   668  021E                     	;# 
   669  021F                     	;# 
   670  0291                     	;# 
   671  0291                     	;# 
   672  0292                     	;# 
   673  0293                     	;# 
   674  0294                     	;# 
   675  0295                     	;# 
   676  0295                     	;# 
   677  0296                     	;# 
   678  0298                     	;# 
   679  0298                     	;# 
   680  0299                     	;# 
   681  029A                     	;# 
   682  029B                     	;# 
   683  029C                     	;# 
   684  029C                     	;# 
   685  029D                     	;# 
   686  029E                     	;# 
   687  029E                     	;# 
   688  0311                     	;# 
   689  0311                     	;# 
   690  0312                     	;# 
   691  0313                     	;# 
   692  0318                     	;# 
   693  0318                     	;# 
   694  0319                     	;# 
   695  031A                     	;# 
   696  0394                     	;# 
   697  0395                     	;# 
   698  0396                     	;# 
   699  039A                     	;# 
   700  039C                     	;# 
   701  039D                     	;# 
   702  039E                     	;# 
   703  039F                     	;# 
   704  0415                     	;# 
   705  0416                     	;# 
   706  0417                     	;# 
   707  041C                     	;# 
   708  041D                     	;# 
   709  041E                     	;# 
   710  0FE4                     	;# 
   711  0FE5                     	;# 
   712  0FE6                     	;# 
   713  0FE7                     	;# 
   714  0FE8                     	;# 
   715  0FE9                     	;# 
   716  0FEA                     	;# 
   717  0FEB                     	;# 
   718  0FED                     	;# 
   719  0FEE                     	;# 
   720  0FEF                     	;# 
   721  0000                     	;# 
   722  0001                     	;# 
   723  0002                     	;# 
   724  0003                     	;# 
   725  0004                     	;# 
   726  0005                     	;# 
   727  0006                     	;# 
   728  0007                     	;# 
   729  0008                     	;# 
   730  0009                     	;# 
   731  000A                     	;# 
   732  000B                     	;# 
   733  000C                     	;# 
   734  000D                     	;# 
   735  0011                     	;# 
   736  0012                     	;# 
   737  0013                     	;# 
   738  0014                     	;# 
   739  0015                     	;# 
   740  0016                     	;# 
   741  0016                     	;# 
   742  0017                     	;# 
   743  0018                     	;# 
   744  0019                     	;# 
   745  001A                     	;# 
   746  001B                     	;# 
   747  001C                     	;# 
   748  001E                     	;# 
   749  001F                     	;# 
   750  008C                     	;# 
   751  008D                     	;# 
   752  0091                     	;# 
   753  0092                     	;# 
   754  0093                     	;# 
   755  0094                     	;# 
   756  0095                     	;# 
   757  0096                     	;# 
   758  0097                     	;# 
   759  0098                     	;# 
   760  0099                     	;# 
   761  009A                     	;# 
   762  009B                     	;# 
   763  009B                     	;# 
   764  009C                     	;# 
   765  009D                     	;# 
   766  009E                     	;# 
   767  010C                     	;# 
   768  010D                     	;# 
   769  0111                     	;# 
   770  0112                     	;# 
   771  0113                     	;# 
   772  0114                     	;# 
   773  0115                     	;# 
   774  0116                     	;# 
   775  0117                     	;# 
   776  0118                     	;# 
   777  0119                     	;# 
   778  011A                     	;# 
   779  011B                     	;# 
   780  011D                     	;# 
   781  011E                     	;# 
   782  018C                     	;# 
   783  018D                     	;# 
   784  0191                     	;# 
   785  0191                     	;# 
   786  0192                     	;# 
   787  0193                     	;# 
   788  0193                     	;# 
   789  0193                     	;# 
   790  0194                     	;# 
   791  0195                     	;# 
   792  0196                     	;# 
   793  0199                     	;# 
   794  019A                     	;# 
   795  019B                     	;# 
   796  019B                     	;# 
   797  019B                     	;# 
   798  019B                     	;# 
   799  019C                     	;# 
   800  019C                     	;# 
   801  019D                     	;# 
   802  019E                     	;# 
   803  019F                     	;# 
   804  020C                     	;# 
   805  020D                     	;# 
   806  0211                     	;# 
   807  0211                     	;# 
   808  0212                     	;# 
   809  0212                     	;# 
   810  0213                     	;# 
   811  0213                     	;# 
   812  0214                     	;# 
   813  0214                     	;# 
   814  0215                     	;# 
   815  0215                     	;# 
   816  0215                     	;# 
   817  0216                     	;# 
   818  0216                     	;# 
   819  0217                     	;# 
   820  0217                     	;# 
   821  0219                     	;# 
   822  021A                     	;# 
   823  021B                     	;# 
   824  021C                     	;# 
   825  021D                     	;# 
   826  021E                     	;# 
   827  021F                     	;# 
   828  0291                     	;# 
   829  0291                     	;# 
   830  0292                     	;# 
   831  0293                     	;# 
   832  0294                     	;# 
   833  0295                     	;# 
   834  0295                     	;# 
   835  0296                     	;# 
   836  0298                     	;# 
   837  0298                     	;# 
   838  0299                     	;# 
   839  029A                     	;# 
   840  029B                     	;# 
   841  029C                     	;# 
   842  029C                     	;# 
   843  029D                     	;# 
   844  029E                     	;# 
   845  029E                     	;# 
   846  0311                     	;# 
   847  0311                     	;# 
   848  0312                     	;# 
   849  0313                     	;# 
   850  0318                     	;# 
   851  0318                     	;# 
   852  0319                     	;# 
   853  031A                     	;# 
   854  0394                     	;# 
   855  0395                     	;# 
   856  0396                     	;# 
   857  039A                     	;# 
   858  039C                     	;# 
   859  039D                     	;# 
   860  039E                     	;# 
   861  039F                     	;# 
   862  0415                     	;# 
   863  0416                     	;# 
   864  0417                     	;# 
   865  041C                     	;# 
   866  041D                     	;# 
   867  041E                     	;# 
   868  0FE4                     	;# 
   869  0FE5                     	;# 
   870  0FE6                     	;# 
   871  0FE7                     	;# 
   872  0FE8                     	;# 
   873  0FE9                     	;# 
   874  0FEA                     	;# 
   875  0FEB                     	;# 
   876  0FED                     	;# 
   877  0FEE                     	;# 
   878  0FEF                     	;# 
   879  0000                     	;# 
   880  0001                     	;# 
   881  0002                     	;# 
   882  0003                     	;# 
   883  0004                     	;# 
   884  0005                     	;# 
   885  0006                     	;# 
   886  0007                     	;# 
   887  0008                     	;# 
   888  0009                     	;# 
   889  000A                     	;# 
   890  000B                     	;# 
   891  000C                     	;# 
   892  000D                     	;# 
   893  0011                     	;# 
   894  0012                     	;# 
   895  0013                     	;# 
   896  0014                     	;# 
   897  0015                     	;# 
   898  0016                     	;# 
   899  0016                     	;# 
   900  0017                     	;# 
   901  0018                     	;# 
   902  0019                     	;# 
   903  001A                     	;# 
   904  001B                     	;# 
   905  001C                     	;# 
   906  001E                     	;# 
   907  001F                     	;# 
   908  008C                     	;# 
   909  008D                     	;# 
   910  0091                     	;# 
   911  0092                     	;# 
   912  0093                     	;# 
   913  0094                     	;# 
   914  0095                     	;# 
   915  0096                     	;# 
   916  0097                     	;# 
   917  0098                     	;# 
   918  0099                     	;# 
   919  009A                     	;# 
   920  009B                     	;# 
   921  009B                     	;# 
   922  009C                     	;# 
   923  009D                     	;# 
   924  009E                     	;# 
   925  010C                     	;# 
   926  010D                     	;# 
   927  0111                     	;# 
   928  0112                     	;# 
   929  0113                     	;# 
   930  0114                     	;# 
   931  0115                     	;# 
   932  0116                     	;# 
   933  0117                     	;# 
   934  0118                     	;# 
   935  0119                     	;# 
   936  011A                     	;# 
   937  011B                     	;# 
   938  011D                     	;# 
   939  011E                     	;# 
   940  018C                     	;# 
   941  018D                     	;# 
   942  0191                     	;# 
   943  0191                     	;# 
   944  0192                     	;# 
   945  0193                     	;# 
   946  0193                     	;# 
   947  0193                     	;# 
   948  0194                     	;# 
   949  0195                     	;# 
   950  0196                     	;# 
   951  0199                     	;# 
   952  019A                     	;# 
   953  019B                     	;# 
   954  019B                     	;# 
   955  019B                     	;# 
   956  019B                     	;# 
   957  019C                     	;# 
   958  019C                     	;# 
   959  019D                     	;# 
   960  019E                     	;# 
   961  019F                     	;# 
   962  020C                     	;# 
   963  020D                     	;# 
   964  0211                     	;# 
   965  0211                     	;# 
   966  0212                     	;# 
   967  0212                     	;# 
   968  0213                     	;# 
   969  0213                     	;# 
   970  0214                     	;# 
   971  0214                     	;# 
   972  0215                     	;# 
   973  0215                     	;# 
   974  0215                     	;# 
   975  0216                     	;# 
   976  0216                     	;# 
   977  0217                     	;# 
   978  0217                     	;# 
   979  0219                     	;# 
   980  021A                     	;# 
   981  021B                     	;# 
   982  021C                     	;# 
   983  021D                     	;# 
   984  021E                     	;# 
   985  021F                     	;# 
   986  0291                     	;# 
   987  0291                     	;# 
   988  0292                     	;# 
   989  0293                     	;# 
   990  0294                     	;# 
   991  0295                     	;# 
   992  0295                     	;# 
   993  0296                     	;# 
   994  0298                     	;# 
   995  0298                     	;# 
   996  0299                     	;# 
   997  029A                     	;# 
   998  029B                     	;# 
   999  029C                     	;# 
  1000  029C                     	;# 
  1001  029D                     	;# 
  1002  029E                     	;# 
  1003  029E                     	;# 
  1004  0311                     	;# 
  1005  0311                     	;# 
  1006  0312                     	;# 
  1007  0313                     	;# 
  1008  0318                     	;# 
  1009  0318                     	;# 
  1010  0319                     	;# 
  1011  031A                     	;# 
  1012  0394                     	;# 
  1013  0395                     	;# 
  1014  0396                     	;# 
  1015  039A                     	;# 
  1016  039C                     	;# 
  1017  039D                     	;# 
  1018  039E                     	;# 
  1019  039F                     	;# 
  1020  0415                     	;# 
  1021  0416                     	;# 
  1022  0417                     	;# 
  1023  041C                     	;# 
  1024  041D                     	;# 
  1025  041E                     	;# 
  1026  0FE4                     	;# 
  1027  0FE5                     	;# 
  1028  0FE6                     	;# 
  1029  0FE7                     	;# 
  1030  0FE8                     	;# 
  1031  0FE9                     	;# 
  1032  0FEA                     	;# 
  1033  0FEB                     	;# 
  1034  0FED                     	;# 
  1035  0FEE                     	;# 
  1036  0FEF                     	;# 
  1037  0000                     	;# 
  1038  0001                     	;# 
  1039  0002                     	;# 
  1040  0003                     	;# 
  1041  0004                     	;# 
  1042  0005                     	;# 
  1043  0006                     	;# 
  1044  0007                     	;# 
  1045  0008                     	;# 
  1046  0009                     	;# 
  1047  000A                     	;# 
  1048  000B                     	;# 
  1049  000C                     	;# 
  1050  000D                     	;# 
  1051  0011                     	;# 
  1052  0012                     	;# 
  1053  0013                     	;# 
  1054  0014                     	;# 
  1055  0015                     	;# 
  1056  0016                     	;# 
  1057  0016                     	;# 
  1058  0017                     	;# 
  1059  0018                     	;# 
  1060  0019                     	;# 
  1061  001A                     	;# 
  1062  001B                     	;# 
  1063  001C                     	;# 
  1064  001E                     	;# 
  1065  001F                     	;# 
  1066  008C                     	;# 
  1067  008D                     	;# 
  1068  0091                     	;# 
  1069  0092                     	;# 
  1070  0093                     	;# 
  1071  0094                     	;# 
  1072  0095                     	;# 
  1073  0096                     	;# 
  1074  0097                     	;# 
  1075  0098                     	;# 
  1076  0099                     	;# 
  1077  009A                     	;# 
  1078  009B                     	;# 
  1079  009B                     	;# 
  1080  009C                     	;# 
  1081  009D                     	;# 
  1082  009E                     	;# 
  1083  010C                     	;# 
  1084  010D                     	;# 
  1085  0111                     	;# 
  1086  0112                     	;# 
  1087  0113                     	;# 
  1088  0114                     	;# 
  1089  0115                     	;# 
  1090  0116                     	;# 
  1091  0117                     	;# 
  1092  0118                     	;# 
  1093  0119                     	;# 
  1094  011A                     	;# 
  1095  011B                     	;# 
  1096  011D                     	;# 
  1097  011E                     	;# 
  1098  018C                     	;# 
  1099  018D                     	;# 
  1100  0191                     	;# 
  1101  0191                     	;# 
  1102  0192                     	;# 
  1103  0193                     	;# 
  1104  0193                     	;# 
  1105  0193                     	;# 
  1106  0194                     	;# 
  1107  0195                     	;# 
  1108  0196                     	;# 
  1109  0199                     	;# 
  1110  019A                     	;# 
  1111  019B                     	;# 
  1112  019B                     	;# 
  1113  019B                     	;# 
  1114  019B                     	;# 
  1115  019C                     	;# 
  1116  019C                     	;# 
  1117  019D                     	;# 
  1118  019E                     	;# 
  1119  019F                     	;# 
  1120  020C                     	;# 
  1121  020D                     	;# 
  1122  0211                     	;# 
  1123  0211                     	;# 
  1124  0212                     	;# 
  1125  0212                     	;# 
  1126  0213                     	;# 
  1127  0213                     	;# 
  1128  0214                     	;# 
  1129  0214                     	;# 
  1130  0215                     	;# 
  1131  0215                     	;# 
  1132  0215                     	;# 
  1133  0216                     	;# 
  1134  0216                     	;# 
  1135  0217                     	;# 
  1136  0217                     	;# 
  1137  0219                     	;# 
  1138  021A                     	;# 
  1139  021B                     	;# 
  1140  021C                     	;# 
  1141  021D                     	;# 
  1142  021E                     	;# 
  1143  021F                     	;# 
  1144  0291                     	;# 
  1145  0291                     	;# 
  1146  0292                     	;# 
  1147  0293                     	;# 
  1148  0294                     	;# 
  1149  0295                     	;# 
  1150  0295                     	;# 
  1151  0296                     	;# 
  1152  0298                     	;# 
  1153  0298                     	;# 
  1154  0299                     	;# 
  1155  029A                     	;# 
  1156  029B                     	;# 
  1157  029C                     	;# 
  1158  029C                     	;# 
  1159  029D                     	;# 
  1160  029E                     	;# 
  1161  029E                     	;# 
  1162  0311                     	;# 
  1163  0311                     	;# 
  1164  0312                     	;# 
  1165  0313                     	;# 
  1166  0318                     	;# 
  1167  0318                     	;# 
  1168  0319                     	;# 
  1169  031A                     	;# 
  1170  0394                     	;# 
  1171  0395                     	;# 
  1172  0396                     	;# 
  1173  039A                     	;# 
  1174  039C                     	;# 
  1175  039D                     	;# 
  1176  039E                     	;# 
  1177  039F                     	;# 
  1178  0415                     	;# 
  1179  0416                     	;# 
  1180  0417                     	;# 
  1181  041C                     	;# 
  1182  041D                     	;# 
  1183  041E                     	;# 
  1184  0FE4                     	;# 
  1185  0FE5                     	;# 
  1186  0FE6                     	;# 
  1187  0FE7                     	;# 
  1188  0FE8                     	;# 
  1189  0FE9                     	;# 
  1190  0FEA                     	;# 
  1191  0FEB                     	;# 
  1192  0FED                     	;# 
  1193  0FEE                     	;# 
  1194  0FEF                     	;# 
  1195  0000                     	;# 
  1196  0001                     	;# 
  1197  0002                     	;# 
  1198  0003                     	;# 
  1199  0004                     	;# 
  1200  0005                     	;# 
  1201  0006                     	;# 
  1202  0007                     	;# 
  1203  0008                     	;# 
  1204  0009                     	;# 
  1205  000A                     	;# 
  1206  000B                     	;# 
  1207  000C                     	;# 
  1208  000D                     	;# 
  1209  0011                     	;# 
  1210  0012                     	;# 
  1211  0013                     	;# 
  1212  0014                     	;# 
  1213  0015                     	;# 
  1214  0016                     	;# 
  1215  0016                     	;# 
  1216  0017                     	;# 
  1217  0018                     	;# 
  1218  0019                     	;# 
  1219  001A                     	;# 
  1220  001B                     	;# 
  1221  001C                     	;# 
  1222  001E                     	;# 
  1223  001F                     	;# 
  1224  008C                     	;# 
  1225  008D                     	;# 
  1226  0091                     	;# 
  1227  0092                     	;# 
  1228  0093                     	;# 
  1229  0094                     	;# 
  1230  0095                     	;# 
  1231  0096                     	;# 
  1232  0097                     	;# 
  1233  0098                     	;# 
  1234  0099                     	;# 
  1235  009A                     	;# 
  1236  009B                     	;# 
  1237  009B                     	;# 
  1238  009C                     	;# 
  1239  009D                     	;# 
  1240  009E                     	;# 
  1241  010C                     	;# 
  1242  010D                     	;# 
  1243  0111                     	;# 
  1244  0112                     	;# 
  1245  0113                     	;# 
  1246  0114                     	;# 
  1247  0115                     	;# 
  1248  0116                     	;# 
  1249  0117                     	;# 
  1250  0118                     	;# 
  1251  0119                     	;# 
  1252  011A                     	;# 
  1253  011B                     	;# 
  1254  011D                     	;# 
  1255  011E                     	;# 
  1256  018C                     	;# 
  1257  018D                     	;# 
  1258  0191                     	;# 
  1259  0191                     	;# 
  1260  0192                     	;# 
  1261  0193                     	;# 
  1262  0193                     	;# 
  1263  0193                     	;# 
  1264  0194                     	;# 
  1265  0195                     	;# 
  1266  0196                     	;# 
  1267  0199                     	;# 
  1268  019A                     	;# 
  1269  019B                     	;# 
  1270  019B                     	;# 
  1271  019B                     	;# 
  1272  019B                     	;# 
  1273  019C                     	;# 
  1274  019C                     	;# 
  1275  019D                     	;# 
  1276  019E                     	;# 
  1277  019F                     	;# 
  1278  020C                     	;# 
  1279  020D                     	;# 
  1280  0211                     	;# 
  1281  0211                     	;# 
  1282  0212                     	;# 
  1283  0212                     	;# 
  1284  0213                     	;# 
  1285  0213                     	;# 
  1286  0214                     	;# 
  1287  0214                     	;# 
  1288  0215                     	;# 
  1289  0215                     	;# 
  1290  0215                     	;# 
  1291  0216                     	;# 
  1292  0216                     	;# 
  1293  0217                     	;# 
  1294  0217                     	;# 
  1295  0219                     	;# 
  1296  021A                     	;# 
  1297  021B                     	;# 
  1298  021C                     	;# 
  1299  021D                     	;# 
  1300  021E                     	;# 
  1301  021F                     	;# 
  1302  0291                     	;# 
  1303  0291                     	;# 
  1304  0292                     	;# 
  1305  0293                     	;# 
  1306  0294                     	;# 
  1307  0295                     	;# 
  1308  0295                     	;# 
  1309  0296                     	;# 
  1310  0298                     	;# 
  1311  0298                     	;# 
  1312  0299                     	;# 
  1313  029A                     	;# 
  1314  029B                     	;# 
  1315  029C                     	;# 
  1316  029C                     	;# 
  1317  029D                     	;# 
  1318  029E                     	;# 
  1319  029E                     	;# 
  1320  0311                     	;# 
  1321  0311                     	;# 
  1322  0312                     	;# 
  1323  0313                     	;# 
  1324  0318                     	;# 
  1325  0318                     	;# 
  1326  0319                     	;# 
  1327  031A                     	;# 
  1328  0394                     	;# 
  1329  0395                     	;# 
  1330  0396                     	;# 
  1331  039A                     	;# 
  1332  039C                     	;# 
  1333  039D                     	;# 
  1334  039E                     	;# 
  1335  039F                     	;# 
  1336  0415                     	;# 
  1337  0416                     	;# 
  1338  0417                     	;# 
  1339  041C                     	;# 
  1340  041D                     	;# 
  1341  041E                     	;# 
  1342  0FE4                     	;# 
  1343  0FE5                     	;# 
  1344  0FE6                     	;# 
  1345  0FE7                     	;# 
  1346  0FE8                     	;# 
  1347  0FE9                     	;# 
  1348  0FEA                     	;# 
  1349  0FEB                     	;# 
  1350  0FED                     	;# 
  1351  0FEE                     	;# 
  1352  0FEF                     	;# 
  1353  0000                     	;# 
  1354  0001                     	;# 
  1355  0002                     	;# 
  1356  0003                     	;# 
  1357  0004                     	;# 
  1358  0005                     	;# 
  1359  0006                     	;# 
  1360  0007                     	;# 
  1361  0008                     	;# 
  1362  0009                     	;# 
  1363  000A                     	;# 
  1364  000B                     	;# 
  1365  000C                     	;# 
  1366  000D                     	;# 
  1367  0011                     	;# 
  1368  0012                     	;# 
  1369  0013                     	;# 
  1370  0014                     	;# 
  1371  0015                     	;# 
  1372  0016                     	;# 
  1373  0016                     	;# 
  1374  0017                     	;# 
  1375  0018                     	;# 
  1376  0019                     	;# 
  1377  001A                     	;# 
  1378  001B                     	;# 
  1379  001C                     	;# 
  1380  001E                     	;# 
  1381  001F                     	;# 
  1382  008C                     	;# 
  1383  008D                     	;# 
  1384  0091                     	;# 
  1385  0092                     	;# 
  1386  0093                     	;# 
  1387  0094                     	;# 
  1388  0095                     	;# 
  1389  0096                     	;# 
  1390  0097                     	;# 
  1391  0098                     	;# 
  1392  0099                     	;# 
  1393  009A                     	;# 
  1394  009B                     	;# 
  1395  009B                     	;# 
  1396  009C                     	;# 
  1397  009D                     	;# 
  1398  009E                     	;# 
  1399  010C                     	;# 
  1400  010D                     	;# 
  1401  0111                     	;# 
  1402  0112                     	;# 
  1403  0113                     	;# 
  1404  0114                     	;# 
  1405  0115                     	;# 
  1406  0116                     	;# 
  1407  0117                     	;# 
  1408  0118                     	;# 
  1409  0119                     	;# 
  1410  011A                     	;# 
  1411  011B                     	;# 
  1412  011D                     	;# 
  1413  011E                     	;# 
  1414  018C                     	;# 
  1415  018D                     	;# 
  1416  0191                     	;# 
  1417  0191                     	;# 
  1418  0192                     	;# 
  1419  0193                     	;# 
  1420  0193                     	;# 
  1421  0193                     	;# 
  1422  0194                     	;# 
  1423  0195                     	;# 
  1424  0196                     	;# 
  1425  0199                     	;# 
  1426  019A                     	;# 
  1427  019B                     	;# 
  1428  019B                     	;# 
  1429  019B                     	;# 
  1430  019B                     	;# 
  1431  019C                     	;# 
  1432  019C                     	;# 
  1433  019D                     	;# 
  1434  019E                     	;# 
  1435  019F                     	;# 
  1436  020C                     	;# 
  1437  020D                     	;# 
  1438  0211                     	;# 
  1439  0211                     	;# 
  1440  0212                     	;# 
  1441  0212                     	;# 
  1442  0213                     	;# 
  1443  0213                     	;# 
  1444  0214                     	;# 
  1445  0214                     	;# 
  1446  0215                     	;# 
  1447  0215                     	;# 
  1448  0215                     	;# 
  1449  0216                     	;# 
  1450  0216                     	;# 
  1451  0217                     	;# 
  1452  0217                     	;# 
  1453  0219                     	;# 
  1454  021A                     	;# 
  1455  021B                     	;# 
  1456  021C                     	;# 
  1457  021D                     	;# 
  1458  021E                     	;# 
  1459  021F                     	;# 
  1460  0291                     	;# 
  1461  0291                     	;# 
  1462  0292                     	;# 
  1463  0293                     	;# 
  1464  0294                     	;# 
  1465  0295                     	;# 
  1466  0295                     	;# 
  1467  0296                     	;# 
  1468  0298                     	;# 
  1469  0298                     	;# 
  1470  0299                     	;# 
  1471  029A                     	;# 
  1472  029B                     	;# 
  1473  029C                     	;# 
  1474  029C                     	;# 
  1475  029D                     	;# 
  1476  029E                     	;# 
  1477  029E                     	;# 
  1478  0311                     	;# 
  1479  0311                     	;# 
  1480  0312                     	;# 
  1481  0313                     	;# 
  1482  0318                     	;# 
  1483  0318                     	;# 
  1484  0319                     	;# 
  1485  031A                     	;# 
  1486  0394                     	;# 
  1487  0395                     	;# 
  1488  0396                     	;# 
  1489  039A                     	;# 
  1490  039C                     	;# 
  1491  039D                     	;# 
  1492  039E                     	;# 
  1493  039F                     	;# 
  1494  0415                     	;# 
  1495  0416                     	;# 
  1496  0417                     	;# 
  1497  041C                     	;# 
  1498  041D                     	;# 
  1499  041E                     	;# 
  1500  0FE4                     	;# 
  1501  0FE5                     	;# 
  1502  0FE6                     	;# 
  1503  0FE7                     	;# 
  1504  0FE8                     	;# 
  1505  0FE9                     	;# 
  1506  0FEA                     	;# 
  1507  0FEB                     	;# 
  1508  0FED                     	;# 
  1509  0FEE                     	;# 
  1510  0FEF                     	;# 
  1511                           
  1512 ;; Function _EUSART_DefaultFramingErrorHandler is unused but had its address taken
  1513  0000                     
  1514 ;; Function _EUSART_DefaultOverrunErrorHandler is unused but had its address taken
  1515  0000                     
  1516 ;; Function _EUSART_DefaultErrorHandler is unused but had its address taken
  1517  000B                     _INTCONbits	set	11
  1518  0011                     _PIR1bits	set	17
  1519  0013                     _PIR3bits	set	19
  1520  0097                     _WDTCON	set	151
  1521  0098                     _OSCTUNE	set	152
  1522  0099                     _OSCCON	set	153
  1523  009D                     _ADCON0bits	set	157
  1524  0091                     _PIE1bits	set	145
  1525  009D                     _ADCON0	set	157
  1526  009C                     _ADRESH	set	156
  1527  009B                     _ADRESL	set	155
  1528  009E                     _ADCON1	set	158
  1529  0095                     _OPTION_REGbits	set	149
  1530  008D                     _TRISB	set	141
  1531  008C                     _TRISA	set	140
  1532  0093                     _PIE3bits	set	147
  1533  04D6                     _PLLR	set	1238
  1534  010D                     _LATBbits	set	269
  1535  010C                     _LATAbits	set	268
  1536  0116                     _BORCON	set	278
  1537  011E                     _APFCON1	set	286
  1538  011D                     _APFCON0	set	285
  1539  010D                     _LATB	set	269
  1540  010C                     _LATA	set	268
  1541  019A                     _TXREG	set	410
  1542  0199                     _RCREG	set	409
  1543  019D                     _RCSTAbits	set	413
  1544  019E                     _TXSTAbits	set	414
  1545  019C                     _SPBRGH	set	412
  1546  019B                     _SPBRGL	set	411
  1547  019E                     _TXSTA	set	414
  1548  019D                     _RCSTA	set	413
  1549  019F                     _BAUDCON	set	415
  1550  018C                     _ANSELA	set	396
  1551  018D                     _ANSELB	set	397
  1552  020C                     _WPUA	set	524
  1553  020D                     _WPUB	set	525
  1554  041E                     _T6CONbits	set	1054
  1555  041E                     _T6CON	set	1054
  1556  041C                     _TMR6	set	1052
  1557  041D                     _PR6	set	1053
  1558                           
  1559                           	psect	cinit
  1560  002A                     start_initialization:	
  1561                           ; #config settings
  1562                           
  1563  002A                     __initialization:
  1564                           
  1565                           ; Clear objects allocated to COMMON
  1566  002A  01F9               	clrf	__pbssCOMMON& (0+127)
  1567  002B  01FA               	clrf	(__pbssCOMMON+1)& (0+127)
  1568                           
  1569                           ; Clear objects allocated to BANK0
  1570  002C  0020               	movlb	0	; select bank0
  1571  002D  01D6               	clrf	__pbssBANK0& (0+127)
  1572                           
  1573                           ; Clear objects allocated to BANK1
  1574  002E  0021               	movlb	1	; select bank1
  1575  002F  01BB               	clrf	__pbssBANK1& (0+127)
  1576  0030  01BC               	clrf	(__pbssBANK1+1)& (0+127)
  1577  0031  01BD               	clrf	(__pbssBANK1+2)& (0+127)
  1578  0032  01BE               	clrf	(__pbssBANK1+3)& (0+127)
  1579  0033  01BF               	clrf	(__pbssBANK1+4)& (0+127)
  1580  0034  01C0               	clrf	(__pbssBANK1+5)& (0+127)
  1581  0035  01C1               	clrf	(__pbssBANK1+6)& (0+127)
  1582  0036  01C2               	clrf	(__pbssBANK1+7)& (0+127)
  1583  0037  01C3               	clrf	(__pbssBANK1+8)& (0+127)
  1584  0038  01C4               	clrf	(__pbssBANK1+9)& (0+127)
  1585  0039  01C5               	clrf	(__pbssBANK1+10)& (0+127)
  1586  003A  01C6               	clrf	(__pbssBANK1+11)& (0+127)
  1587  003B                     end_of_initialization:	
  1588                           ;End of C runtime variable initialization code
  1589                           
  1590  003B                     __end_of__initialization:
  1591  003B  107E               	bcf	int$flags,0	;clear compiler interrupt flag (level 1)
  1592  003C  0020               	movlb	0
  1593  003D  3183  2BC0         	ljmp	_main	;jump to C main() function
  1594                           
  1595                           	psect	bssCOMMON
  1596  0079                     __pbssCOMMON:
  1597  0079                     _timer_flag:
  1598  0079                     	ds	1
  1599  007A                     _eusartRxLastError:
  1600  007A                     	ds	1
  1601                           
  1602                           	psect	bssBANK0
  1603  0056                     __pbssBANK0:
  1604  0056                     _ADC_flag:
  1605  0056                     	ds	1
  1606                           
  1607                           	psect	bssBANK1
  1608  00BB                     __pbssBANK1:
  1609  00BB                     _num_ADC:
  1610  00BB                     	ds	2
  1611  00BD                     _ADC_InterruptHandler:
  1612  00BD                     	ds	2
  1613  00BF                     _EUSART_ErrorHandler:
  1614  00BF                     	ds	2
  1615  00C1                     _EUSART_OverrunErrorHandler:
  1616  00C1                     	ds	2
  1617  00C3                     _EUSART_FramingErrorHandler:
  1618  00C3                     	ds	2
  1619  00C5                     _TMR6_InterruptHandler:
  1620  00C5                     	ds	2
  1621                           
  1622                           	psect	cstackBANK1
  1623  00A0                     __pcstackBANK1:
  1624  00A0                     main@valor_ADC:
  1625                           
  1626                           ; 2 bytes @ 0x0
  1627  00A0                     	ds	2
  1628  00A2                     main@volt_ADC:
  1629                           
  1630                           ; 2 bytes @ 0x2
  1631  00A2                     	ds	2
  1632  00A4                     main@Pack:
  1633                           
  1634                           ; 6 bytes @ 0x4
  1635  00A4                     	ds	6
  1636  00AA                     main@timer_1ms:
  1637                           
  1638                           ; 9 bytes @ 0xA
  1639  00AA                     	ds	9
  1640  00B3                     main@seven_seg:
  1641                           
  1642                           ; 8 bytes @ 0x13
  1643  00B3                     	ds	8
  1644                           
  1645                           	psect	cstackCOMMON
  1646  0070                     __pcstackCOMMON:
  1647  0070                     ?_TMR6_DefaultInterruptHandler:
  1648  0070                     ??_TMR6_DefaultInterruptHandler:	
  1649                           ; 1 bytes @ 0x0
  1650                           
  1651  0070                     ?_ADC_DefaultInterruptHandler:	
  1652                           ; 1 bytes @ 0x0
  1653                           
  1654  0070                     ??_ADC_DefaultInterruptHandler:	
  1655                           ; 1 bytes @ 0x0
  1656                           
  1657  0070                     ?_OSCILLATOR_Initialize:	
  1658                           ; 1 bytes @ 0x0
  1659                           
  1660  0070                     ?_WDT_Initialize:	
  1661                           ; 1 bytes @ 0x0
  1662                           
  1663  0070                     ?_Tm_Procese_tiempo:	
  1664                           ; 1 bytes @ 0x0
  1665                           
  1666  0070                     ?_Ds_Procese_displays:	
  1667                           ; 1 bytes @ 0x0
  1668                           
  1669  0070                     ?_Tm_Hubo_periodico:	
  1670                           ; 1 bytes @ 0x0
  1671                           
  1672  0070                     ?_Tm_Baje_periodico:	
  1673                           ; 1 bytes @ 0x0
  1674                           
  1675  0070                     ?_Ds_Encienda_Disp:	
  1676                           ; 1 bytes @ 0x0
  1677                           
  1678  0070                     ?_TMR6_Initialize:	
  1679                           ; 1 bytes @ 0x0
  1680                           
  1681  0070                     ?_TMR6_StartTimer:	
  1682                           ; 1 bytes @ 0x0
  1683                           
  1684  0070                     ?_TMR6_ISR:	
  1685                           ; 1 bytes @ 0x0
  1686                           
  1687  0070                     ?_PIN_MANAGER_Initialize:	
  1688                           ; 1 bytes @ 0x0
  1689                           
  1690  0070                     ?_EUSART_Initialize:	
  1691                           ; 1 bytes @ 0x0
  1692                           
  1693  0070                     ?_EUSART_is_tx_ready:	
  1694                           ; 1 bytes @ 0x0
  1695                           
  1696  0070                     ?_EUSART_Write:	
  1697                           ; 1 bytes @ 0x0
  1698                           
  1699  0070                     ?_ADC_Initialize:	
  1700                           ; 1 bytes @ 0x0
  1701                           
  1702  0070                     ?_ADC_StartConversion:	
  1703                           ; 1 bytes @ 0x0
  1704                           
  1705  0070                     ?_ADC_ISR:	
  1706                           ; 1 bytes @ 0x0
  1707                           
  1708  0070                     ?_SYSTEM_Initialize:	
  1709                           ; 1 bytes @ 0x0
  1710                           
  1711  0070                     ?_Interrupcion_ADC:	
  1712                           ; 1 bytes @ 0x0
  1713                           
  1714  0070                     ?_Interrupcion_timer:	
  1715                           ; 1 bytes @ 0x0
  1716                           
  1717  0070                     ??_Interrupcion_timer:	
  1718                           ; 1 bytes @ 0x0
  1719                           
  1720  0070                     ?_main:	
  1721                           ; 1 bytes @ 0x0
  1722                           
  1723  0070                     ?_Ds_BCD:	
  1724                           ; 1 bytes @ 0x0
  1725                           
  1726  0070                     ?_INTERRUPT_InterruptManager:	
  1727                           ; 1 bytes @ 0x0
  1728                           
  1729  0070                     ?_ADC_GetConversionResult:	
  1730                           ; 1 bytes @ 0x0
  1731                           
  1732                           
  1733                           ; 2 bytes @ 0x0
  1734  0070                     	ds	1
  1735  0071                     ??_TMR6_ISR:
  1736                           
  1737                           ; 1 bytes @ 0x1
  1738  0071                     	ds	1
  1739  0072                     ??_ADC_GetConversionResult:
  1740  0072                     ??_Interrupcion_ADC:	
  1741                           ; 1 bytes @ 0x2
  1742                           
  1743                           
  1744                           ; 1 bytes @ 0x2
  1745  0072                     	ds	1
  1746  0073                     ?_TMR6_SetInterruptHandler:
  1747  0073                     ?_EUSART_SetFramingErrorHandler:	
  1748                           ; 1 bytes @ 0x3
  1749                           
  1750  0073                     ?_EUSART_SetOverrunErrorHandler:	
  1751                           ; 1 bytes @ 0x3
  1752                           
  1753  0073                     ?_EUSART_SetErrorHandler:	
  1754                           ; 1 bytes @ 0x3
  1755                           
  1756  0073                     ?_ADC_SetInterruptHandler:	
  1757                           ; 1 bytes @ 0x3
  1758                           
  1759  0073                     ??_OSCILLATOR_Initialize:	
  1760                           ; 1 bytes @ 0x3
  1761                           
  1762  0073                     ??_WDT_Initialize:	
  1763                           ; 1 bytes @ 0x3
  1764                           
  1765  0073                     ?_Tm_Inicie_periodico:	
  1766                           ; 1 bytes @ 0x3
  1767                           
  1768  0073                     ?_Ds_Iniciar_displays:	
  1769                           ; 1 bytes @ 0x3
  1770                           
  1771  0073                     ??_Tm_Procese_tiempo:	
  1772                           ; 1 bytes @ 0x3
  1773                           
  1774  0073                     ??_Tm_Hubo_periodico:	
  1775                           ; 1 bytes @ 0x3
  1776                           
  1777  0073                     ??_Tm_Baje_periodico:	
  1778                           ; 1 bytes @ 0x3
  1779                           
  1780  0073                     ??_Ds_Encienda_Disp:	
  1781                           ; 1 bytes @ 0x3
  1782                           
  1783  0073                     ??_TMR6_StartTimer:	
  1784                           ; 1 bytes @ 0x3
  1785                           
  1786  0073                     ??_PIN_MANAGER_Initialize:	
  1787                           ; 1 bytes @ 0x3
  1788                           
  1789  0073                     ??_EUSART_is_tx_ready:	
  1790                           ; 1 bytes @ 0x3
  1791                           
  1792  0073                     ??_EUSART_Write:	
  1793                           ; 1 bytes @ 0x3
  1794                           
  1795  0073                     ??_ADC_StartConversion:	
  1796                           ; 1 bytes @ 0x3
  1797                           
  1798  0073                     ??_ADC_ISR:	
  1799                           ; 1 bytes @ 0x3
  1800                           
  1801  0073                     ??_Ds_BCD:	
  1802                           ; 1 bytes @ 0x3
  1803                           
  1804  0073                     ??_INTERRUPT_InterruptManager:	
  1805                           ; 1 bytes @ 0x3
  1806                           
  1807  0073                     ?__Umul8_16:	
  1808                           ; 1 bytes @ 0x3
  1809                           
  1810  0073                     ?___lwdiv:	
  1811                           ; 2 bytes @ 0x3
  1812                           
  1813  0073                     ?___lwmod:	
  1814                           ; 2 bytes @ 0x3
  1815                           
  1816  0073                     ?___xxtofl:	
  1817                           ; 2 bytes @ 0x3
  1818                           
  1819  0073                     _EUSART_is_tx_ready$336:	
  1820                           ; 4 bytes @ 0x3
  1821                           
  1822  0073                     EUSART_Write@txData:	
  1823                           ; 1 bytes @ 0x3
  1824                           
  1825  0073                     Ds_Iniciar_displays@d1:	
  1826                           ; 1 bytes @ 0x3
  1827                           
  1828  0073                     Ds_Encienda_Disp@dispNum:	
  1829                           ; 1 bytes @ 0x3
  1830                           
  1831  0073                     Tm_Hubo_periodico@ctp:	
  1832                           ; 1 bytes @ 0x3
  1833                           
  1834  0073                     __Umul8_16@multiplicand:	
  1835                           ; 1 bytes @ 0x3
  1836                           
  1837  0073                     TMR6_SetInterruptHandler@InterruptHandler:	
  1838                           ; 1 bytes @ 0x3
  1839                           
  1840  0073                     EUSART_SetFramingErrorHandler@interruptHandler:	
  1841                           ; 2 bytes @ 0x3
  1842                           
  1843  0073                     EUSART_SetOverrunErrorHandler@interruptHandler:	
  1844                           ; 2 bytes @ 0x3
  1845                           
  1846  0073                     EUSART_SetErrorHandler@interruptHandler:	
  1847                           ; 2 bytes @ 0x3
  1848                           
  1849  0073                     ADC_SetInterruptHandler@InterruptHandler:	
  1850                           ; 2 bytes @ 0x3
  1851                           
  1852  0073                     Tm_Inicie_periodico@periodo:	
  1853                           ; 2 bytes @ 0x3
  1854                           
  1855  0073                     ___lwdiv@divisor:	
  1856                           ; 2 bytes @ 0x3
  1857                           
  1858  0073                     ___lwmod@divisor:	
  1859                           ; 2 bytes @ 0x3
  1860                           
  1861  0073                     ___xxtofl@val:	
  1862                           ; 2 bytes @ 0x3
  1863                           
  1864                           
  1865                           ; 4 bytes @ 0x3
  1866  0073                     	ds	1
  1867  0074                     Ds_Iniciar_displays@d2:
  1868  0074                     Tm_Baje_periodico@ctp:	
  1869                           ; 1 bytes @ 0x4
  1870                           
  1871                           
  1872                           ; 1 bytes @ 0x4
  1873  0074                     	ds	1
  1874  0075                     ??_TMR6_SetInterruptHandler:
  1875  0075                     ??_EUSART_SetFramingErrorHandler:	
  1876                           ; 1 bytes @ 0x5
  1877                           
  1878  0075                     ??_EUSART_SetOverrunErrorHandler:	
  1879                           ; 1 bytes @ 0x5
  1880                           
  1881  0075                     ??_EUSART_SetErrorHandler:	
  1882                           ; 1 bytes @ 0x5
  1883                           
  1884  0075                     ??_ADC_SetInterruptHandler:	
  1885                           ; 1 bytes @ 0x5
  1886                           
  1887  0075                     ??_Tm_Inicie_periodico:	
  1888                           ; 1 bytes @ 0x5
  1889                           
  1890  0075                     ??__Umul8_16:	
  1891                           ; 1 bytes @ 0x5
  1892                           
  1893  0075                     ??_TMR6_Initialize:	
  1894                           ; 1 bytes @ 0x5
  1895                           
  1896  0075                     ??_EUSART_Initialize:	
  1897                           ; 1 bytes @ 0x5
  1898                           
  1899  0075                     ??_ADC_Initialize:	
  1900                           ; 1 bytes @ 0x5
  1901                           
  1902  0075                     ??_SYSTEM_Initialize:	
  1903                           ; 1 bytes @ 0x5
  1904                           
  1905  0075                     Ds_Iniciar_displays@d3:	
  1906                           ; 1 bytes @ 0x5
  1907                           
  1908  0075                     Ds_BCD@segmento:	
  1909                           ; 1 bytes @ 0x5
  1910                           
  1911  0075                     ___lwdiv@dividend:	
  1912                           ; 1 bytes @ 0x5
  1913                           
  1914  0075                     ___lwmod@dividend:	
  1915                           ; 2 bytes @ 0x5
  1916                           
  1917                           
  1918                           ; 2 bytes @ 0x5
  1919  0075                     	ds	1
  1920  0076                     ??_Ds_Procese_displays:
  1921  0076                     Ds_Iniciar_displays@tE:	
  1922                           ; 1 bytes @ 0x6
  1923                           
  1924  0076                     Tm_Inicie_periodico@ctp:	
  1925                           ; 1 bytes @ 0x6
  1926                           
  1927                           
  1928                           ; 1 bytes @ 0x6
  1929  0076                     	ds	1
  1930  0077                     ??___lwdiv:
  1931  0077                     ??___lwmod:	
  1932                           ; 1 bytes @ 0x7
  1933                           
  1934  0077                     Ds_Iniciar_displays@tA:	
  1935                           ; 1 bytes @ 0x7
  1936                           
  1937  0077                     Tm_Procese_tiempo@ctp:	
  1938                           ; 1 bytes @ 0x7
  1939                           
  1940  0077                     ___fltol@sign1:	
  1941                           ; 1 bytes @ 0x7
  1942                           
  1943                           
  1944                           ; 1 bytes @ 0x7
  1945  0077                     	ds	1
  1946  0078                     ??_Ds_Iniciar_displays:
  1947  0078                     Ds_Procese_displays@dsp:	
  1948                           ; 1 bytes @ 0x8
  1949                           
  1950  0078                     ___fltol@exp1:	
  1951                           ; 1 bytes @ 0x8
  1952                           
  1953  0078                     ___lwmod@counter:	
  1954                           ; 1 bytes @ 0x8
  1955                           
  1956                           
  1957                           ; 1 bytes @ 0x8
  1958  0078                     	ds	1
  1959  0079                     ??_Ds_Conversor_ADC:
  1960                           
  1961                           	psect	cstackBANK0
  1962  0020                     __pcstackBANK0:	
  1963                           ; 1 bytes @ 0x9
  1964                           
  1965  0020                     ??___xxtofl:
  1966  0020                     Ds_Iniciar_displays@dsp:	
  1967                           ; 1 bytes @ 0x0
  1968                           
  1969  0020                     ___lwdiv@counter:	
  1970                           ; 1 bytes @ 0x0
  1971                           
  1972  0020                     __Umul8_16@product:	
  1973                           ; 1 bytes @ 0x0
  1974                           
  1975                           
  1976                           ; 2 bytes @ 0x0
  1977  0020                     	ds	1
  1978  0021                     ___lwdiv@quotient:
  1979                           
  1980                           ; 2 bytes @ 0x1
  1981  0021                     	ds	1
  1982  0022                     __Umul8_16@word_mpld:
  1983                           
  1984                           ; 2 bytes @ 0x2
  1985  0022                     	ds	1
  1986  0023                     ?_Ds_Convertir_en_uni:
  1987  0023                     Ds_Convertir_en_uni@voltaje:	
  1988                           ; 1 bytes @ 0x3
  1989                           
  1990                           
  1991                           ; 2 bytes @ 0x3
  1992  0023                     	ds	1
  1993  0024                     __Umul8_16@multiplier:
  1994  0024                     ___xxtofl@sign:	
  1995                           ; 1 bytes @ 0x4
  1996                           
  1997                           
  1998                           ; 1 bytes @ 0x4
  1999  0024                     	ds	1
  2000  0025                     ??_Ds_Convertir_en_uni:
  2001  0025                     ___xxtofl@exp:	
  2002                           ; 1 bytes @ 0x5
  2003                           
  2004                           
  2005                           ; 1 bytes @ 0x5
  2006  0025                     	ds	1
  2007  0026                     Ds_Convertir_en_uni@dsp:
  2008  0026                     ___xxtofl@arg:	
  2009                           ; 1 bytes @ 0x6
  2010                           
  2011                           
  2012                           ; 4 bytes @ 0x6
  2013  0026                     	ds	4
  2014  002A                     ?___flmul:
  2015  002A                     ___flmul@b:	
  2016                           ; 4 bytes @ 0xA
  2017                           
  2018                           
  2019                           ; 4 bytes @ 0xA
  2020  002A                     	ds	4
  2021  002E                     ___flmul@a:
  2022                           
  2023                           ; 4 bytes @ 0xE
  2024  002E                     	ds	4
  2025  0032                     ??___flmul:
  2026                           
  2027                           ; 1 bytes @ 0x12
  2028  0032                     	ds	5
  2029  0037                     ___flmul@sign:
  2030                           
  2031                           ; 1 bytes @ 0x17
  2032  0037                     	ds	1
  2033  0038                     ___flmul@aexp:
  2034                           
  2035                           ; 1 bytes @ 0x18
  2036  0038                     	ds	1
  2037  0039                     ___flmul@grs:
  2038                           
  2039                           ; 4 bytes @ 0x19
  2040  0039                     	ds	4
  2041  003D                     ___flmul@bexp:
  2042                           
  2043                           ; 1 bytes @ 0x1D
  2044  003D                     	ds	1
  2045  003E                     ___flmul@prod:
  2046                           
  2047                           ; 4 bytes @ 0x1E
  2048  003E                     	ds	4
  2049  0042                     ___flmul@temp:
  2050                           
  2051                           ; 2 bytes @ 0x22
  2052  0042                     	ds	2
  2053  0044                     ?___fltol:
  2054  0044                     ___fltol@f1:	
  2055                           ; 4 bytes @ 0x24
  2056                           
  2057                           
  2058                           ; 4 bytes @ 0x24
  2059  0044                     	ds	4
  2060  0048                     ??___fltol:
  2061                           
  2062                           ; 1 bytes @ 0x28
  2063  0048                     	ds	5
  2064  004D                     ?_Ds_Conversor_ADC:
  2065  004D                     Ds_Conversor_ADC@adcOUT:	
  2066                           ; 2 bytes @ 0x2D
  2067                           
  2068                           
  2069                           ; 2 bytes @ 0x2D
  2070  004D                     	ds	2
  2071  004F                     Ds_Conversor_ADC@pendiente:
  2072                           
  2073                           ; 4 bytes @ 0x2F
  2074  004F                     	ds	4
  2075  0053                     Ds_Conversor_ADC@voltios:
  2076                           
  2077                           ; 2 bytes @ 0x33
  2078  0053                     	ds	2
  2079  0055                     ??_main:
  2080                           
  2081                           ; 1 bytes @ 0x35
  2082  0055                     	ds	1
  2083                           
  2084                           	psect	maintext
  2085  03C0                     __pmaintext:	
  2086 ;;
  2087 ;;Main: autosize = 0, tempsize = 1, incstack = 0, save=0
  2088 ;;
  2089 ;; *************** function _main *****************
  2090 ;; Defined at:
  2091 ;;		line 23 in file "main.c"
  2092 ;; Parameters:    Size  Location     Type
  2093 ;;		None
  2094 ;; Auto vars:     Size  Location     Type
  2095 ;;  timer_1ms       9   10[BANK1 ] struct Tm_Periodico
  2096 ;;  seven_seg       8   19[BANK1 ] struct Ds_Display
  2097 ;;  Pack            6    4[BANK1 ] unsigned char [6]
  2098 ;;  volt_ADC        2    2[BANK1 ] unsigned short 
  2099 ;;  valor_ADC       2    0[BANK1 ] unsigned short 
  2100 ;;  send            1    0        unsigned char 
  2101 ;; Return value:  Size  Location     Type
  2102 ;;                  1    wreg      void 
  2103 ;; Registers used:
  2104 ;;		wreg, fsr0l, fsr0h, fsr1l, fsr1h, status,2, status,0, pclath, cstack
  2105 ;; Tracked objects:
  2106 ;;		On entry : B1F/0
  2107 ;;		On exit  : 0/0
  2108 ;;		Unchanged: 0/0
  2109 ;; Data sizes:     COMMON   BANK0   BANK1   BANK2   BANK3   BANK4
  2110 ;;      Params:         0       0       0       0       0       0
  2111 ;;      Locals:         0       0      27       0       0       0
  2112 ;;      Temps:          0       1       0       0       0       0
  2113 ;;      Totals:         0       1      27       0       0       0
  2114 ;;Total ram usage:       28 bytes
  2115 ;; Hardware stack levels required when called: 7
  2116 ;; This function calls:
  2117 ;;		_ADC_Initialize
  2118 ;;		_ADC_SetInterruptHandler
  2119 ;;		_ADC_StartConversion
  2120 ;;		_Ds_Conversor_ADC
  2121 ;;		_Ds_Convertir_en_uni
  2122 ;;		_Ds_Iniciar_displays
  2123 ;;		_Ds_Procese_displays
  2124 ;;		_EUSART_Write
  2125 ;;		_EUSART_is_tx_ready
  2126 ;;		_SYSTEM_Initialize
  2127 ;;		_TMR6_SetInterruptHandler
  2128 ;;		_TMR6_StartTimer
  2129 ;;		_Tm_Baje_periodico
  2130 ;;		_Tm_Hubo_periodico
  2131 ;;		_Tm_Inicie_periodico
  2132 ;;		_Tm_Procese_tiempo
  2133 ;; This function is called by:
  2134 ;;		Startup code after reset
  2135 ;; This function uses a non-reentrant model
  2136 ;;
  2137                           
  2138                           
  2139                           ;psect for function _main
  2140  03C0                     _main:
  2141  03C0                     l3117:	
  2142                           ;incstack = 0
  2143                           ; Regs used in _main: [wreg-fsr1h+status,2+status,0+pclath+cstack]
  2144                           
  2145                           
  2146                           ;main.c: 25:     SYSTEM_Initialize();
  2147  03C0  318F  274D  3183   	fcall	_SYSTEM_Initialize
  2148  03C3                     l3119:
  2149                           
  2150                           ;main.c: 26:     (INTCONbits.GIE = 1);
  2151  03C3  178B               	bsf	11,7	;volatile
  2152  03C4                     l3121:
  2153                           
  2154                           ;main.c: 27:     (INTCONbits.PEIE = 1);
  2155  03C4  170B               	bsf	11,6	;volatile
  2156  03C5                     l3123:
  2157  03C5                     l3125:
  2158  03C5                     l3127:
  2159  03C5                     l3129:
  2160                           
  2161                           ;main.c: 32:  Ds_Display seven_seg;;main.c: 33:  Tm_Periodico timer_1ms;;main.c: 34:  Tm
      +                          _Inicie_periodico (&timer_1ms, 1000);
  2162  03C5  30E8               	movlw	232
  2163  03C6  00F3               	movwf	Tm_Inicie_periodico@periodo
  2164  03C7  3003               	movlw	3
  2165  03C8  00F4               	movwf	Tm_Inicie_periodico@periodo+1
  2166  03C9  30AA               	movlw	(low (main@timer_1ms| 0))& (0+255)
  2167  03CA  318F  2776  3183   	fcall	_Tm_Inicie_periodico
  2168  03CD                     l3131:
  2169                           
  2170                           ;main.c: 35:  ADC_Initialize();
  2171  03CD  3187  27F0  3183   	fcall	_ADC_Initialize
  2172  03D0                     l3133:
  2173                           
  2174                           ;main.c: 36:     ADCON0 = ADCON0 | 0b00011101;
  2175  03D0  0021               	movlb	1	; select bank1
  2176  03D1  081D               	movf	29,w	;volatile
  2177  03D2  381D               	iorlw	29
  2178  03D3  009D               	movwf	29	;volatile
  2179  03D4                     l3135:
  2180                           
  2181                           ;main.c: 37:     ADCON0 = ADCON0 & 0b10011111;
  2182  03D4  081D               	movf	29,w	;volatile
  2183  03D5  399F               	andlw	159
  2184  03D6  009D               	movwf	29	;volatile
  2185  03D7                     l3137:
  2186                           
  2187                           ;main.c: 38:     ADCON1 = 0b11100000;
  2188  03D7  30E0               	movlw	224
  2189  03D8  009E               	movwf	30	;volatile
  2190  03D9                     l3139:
  2191                           
  2192                           ;main.c: 39:  Ds_Iniciar_displays (&seven_seg, 1, 1, 1, 4, 1);
  2193  03D9  01F3               	clrf	Ds_Iniciar_displays@d1
  2194  03DA  0AF3               	incf	Ds_Iniciar_displays@d1,f
  2195  03DB  01F4               	clrf	Ds_Iniciar_displays@d2
  2196  03DC  0AF4               	incf	Ds_Iniciar_displays@d2,f
  2197  03DD  01F5               	clrf	Ds_Iniciar_displays@d3
  2198  03DE  0AF5               	incf	Ds_Iniciar_displays@d3,f
  2199  03DF  3004               	movlw	4
  2200  03E0  0020               	movlb	0	; select bank0
  2201  03E1  00D5               	movwf	??_main
  2202  03E2  0855               	movf	??_main,w
  2203  03E3  00F6               	movwf	Ds_Iniciar_displays@tE
  2204  03E4  01F7               	clrf	Ds_Iniciar_displays@tA
  2205  03E5  0AF7               	incf	Ds_Iniciar_displays@tA,f
  2206  03E6  30B3               	movlw	(low (main@seven_seg| 0))& (0+255)
  2207  03E7  3187  2703  3183   	fcall	_Ds_Iniciar_displays
  2208  03EA                     l3141:
  2209                           
  2210                           ;main.c: 40:     TMR6_StartTimer();
  2211  03EA  318E  26AB  3183   	fcall	_TMR6_StartTimer
  2212  03ED                     l3143:
  2213                           
  2214                           ;main.c: 42:  ADC_SetInterruptHandler(Interrupcion_ADC);
  2215  03ED  30FF               	movlw	low _Interrupcion_ADC
  2216  03EE  00F3               	movwf	ADC_SetInterruptHandler@InterruptHandler
  2217  03EF  300E               	movlw	high _Interrupcion_ADC
  2218  03F0  00F4               	movwf	ADC_SetInterruptHandler@InterruptHandler+1
  2219  03F1  318E  26B9  3183   	fcall	_ADC_SetInterruptHandler
  2220  03F4                     l3145:
  2221                           
  2222                           ;main.c: 43:  TMR6_SetInterruptHandler(Interrupcion_timer);
  2223  03F4  30AE               	movlw	low _Interrupcion_timer
  2224  03F5  00F3               	movwf	TMR6_SetInterruptHandler@InterruptHandler
  2225  03F6  300E               	movlw	high _Interrupcion_timer
  2226  03F7  00F4               	movwf	TMR6_SetInterruptHandler@InterruptHandler+1
  2227  03F8  318E  26D1  3183   	fcall	_TMR6_SetInterruptHandler
  2228  03FB                     l3147:
  2229                           
  2230                           ;main.c: 46:   if(timer_flag){
  2231  03FB  0879               	movf	_timer_flag,w	;volatile
  2232  03FC  1903               	btfsc	3,2
  2233  03FD  2BFF               	goto	u2721
  2234  03FE  2C00               	goto	u2720
  2235  03FF                     u2721:
  2236  03FF  2C09               	goto	l3155
  2237  0400                     u2720:
  2238  0400                     l3149:
  2239                           
  2240                           ;main.c: 47:             timer_flag = 0;
  2241  0400  01F9               	clrf	_timer_flag	;volatile
  2242  0401                     l3151:
  2243                           
  2244                           ;main.c: 48:             Tm_Procese_tiempo(&timer_1ms);
  2245  0401  30AA               	movlw	(low (main@timer_1ms| 0))& (0+255)
  2246  0402  3186  2645  3183   	fcall	_Tm_Procese_tiempo
  2247  0405                     l3153:
  2248                           
  2249                           ;main.c: 49:             Ds_Procese_displays(&seven_seg);
  2250  0405  30B3               	movlw	(low (main@seven_seg| 0))& (0+255)
  2251  0406  3182  2296  3183   	fcall	_Ds_Procese_displays
  2252  0409                     l3155:
  2253                           
  2254                           ;main.c: 52:         if(Tm_Hubo_periodico(&timer_1ms)){
  2255  0409  30AA               	movlw	(low (main@timer_1ms| 0))& (0+255)
  2256  040A  318E  26D7  3183   	fcall	_Tm_Hubo_periodico
  2257  040D  3A00               	xorlw	0
  2258  040E  1903               	skipnz
  2259  040F  2C11               	goto	u2731
  2260  0410  2C12               	goto	u2730
  2261  0411                     u2731:
  2262  0411  2C19               	goto	l3163
  2263  0412                     u2730:
  2264  0412                     l3157:
  2265                           
  2266                           ;main.c: 53:     Tm_Baje_periodico(&timer_1ms);
  2267  0412  30AA               	movlw	(low (main@timer_1ms| 0))& (0+255)
  2268  0413  318E  26E9  3183   	fcall	_Tm_Baje_periodico
  2269  0416                     l3159:
  2270                           
  2271                           ;main.c: 54:                 ADC_StartConversion();
  2272  0416  318E  26A5  3183   	fcall	_ADC_StartConversion
  2273  0419                     l3161:
  2274  0419                     l3163:
  2275                           
  2276                           ;main.c: 58:         if(EUSART_is_tx_ready()){
  2277  0419  318F  272B  3183   	fcall	_EUSART_is_tx_ready
  2278  041C  3A00               	xorlw	0
  2279  041D  1903               	skipnz
  2280  041E  2C20               	goto	u2741
  2281  041F  2C21               	goto	u2740
  2282  0420                     u2741:
  2283  0420  2C66               	goto	l3189
  2284  0421                     u2740:
  2285  0421                     l3165:
  2286                           
  2287                           ;main.c: 59:             Pack[0]=(seven_seg.D3 + '0');
  2288  0421  0021               	movlb	1	; select bank1
  2289  0422  0836               	movf	(main@seven_seg^(0+128)+3),w
  2290  0423  3E30               	addlw	48
  2291  0424  0020               	movlb	0	; select bank0
  2292  0425  00D5               	movwf	??_main
  2293  0426  0855               	movf	??_main,w
  2294  0427  0021               	movlb	1	; select bank1
  2295  0428  00A4               	movwf	main@Pack^(0+128)
  2296  0429                     l3167:
  2297                           
  2298                           ;main.c: 60:             Pack[1]=(',');
  2299  0429  302C               	movlw	44
  2300  042A  0020               	movlb	0	; select bank0
  2301  042B  00D5               	movwf	??_main
  2302  042C  0855               	movf	??_main,w
  2303  042D  0021               	movlb	1	; select bank1
  2304  042E  00A5               	movwf	(main@Pack^(0+128)+1)
  2305  042F                     l3169:
  2306                           
  2307                           ;main.c: 61:             Pack[2]=(seven_seg.D2 + '0');
  2308  042F  0835               	movf	(main@seven_seg^(0+128)+2),w
  2309  0430  3E30               	addlw	48
  2310  0431  0020               	movlb	0	; select bank0
  2311  0432  00D5               	movwf	??_main
  2312  0433  0855               	movf	??_main,w
  2313  0434  0021               	movlb	1	; select bank1
  2314  0435  00A6               	movwf	(main@Pack^(0+128)+2)
  2315  0436                     l3171:
  2316                           
  2317                           ;main.c: 62:             Pack[3]=(seven_seg.D1 + '0');
  2318  0436  0834               	movf	(main@seven_seg^(0+128)+1),w
  2319  0437  3E30               	addlw	48
  2320  0438  0020               	movlb	0	; select bank0
  2321  0439  00D5               	movwf	??_main
  2322  043A  0855               	movf	??_main,w
  2323  043B  0021               	movlb	1	; select bank1
  2324  043C  00A7               	movwf	(main@Pack^(0+128)+3)
  2325  043D                     l3173:
  2326                           
  2327                           ;main.c: 63:             Pack[5]=0x0D;
  2328  043D  300D               	movlw	13
  2329  043E  0020               	movlb	0	; select bank0
  2330  043F  00D5               	movwf	??_main
  2331  0440  0855               	movf	??_main,w
  2332  0441  0021               	movlb	1	; select bank1
  2333  0442  00A9               	movwf	(main@Pack^(0+128)+5)
  2334  0443                     l3175:
  2335                           
  2336                           ;main.c: 64:             Pack[4]= '\n';
  2337  0443  300A               	movlw	10
  2338  0444  0020               	movlb	0	; select bank0
  2339  0445  00D5               	movwf	??_main
  2340  0446  0855               	movf	??_main,w
  2341  0447  0021               	movlb	1	; select bank1
  2342  0448  00A8               	movwf	(main@Pack^(0+128)+4)
  2343  0449                     l3177:
  2344                           
  2345                           ;main.c: 65:             EUSART_Write(Pack[0]);
  2346  0449  0824               	movf	main@Pack^(0+128),w
  2347  044A  318E  26DF  3183   	fcall	_EUSART_Write
  2348  044D                     l3179:
  2349                           
  2350                           ;main.c: 66:             EUSART_Write(Pack[1]);
  2351  044D  0021               	movlb	1	; select bank1
  2352  044E  0825               	movf	(main@Pack^(0+128)+1),w
  2353  044F  318E  26DF  3183   	fcall	_EUSART_Write
  2354  0452                     l3181:
  2355                           
  2356                           ;main.c: 67:             EUSART_Write(Pack[2]);
  2357  0452  0021               	movlb	1	; select bank1
  2358  0453  0826               	movf	(main@Pack^(0+128)+2),w
  2359  0454  318E  26DF  3183   	fcall	_EUSART_Write
  2360  0457                     l3183:
  2361                           
  2362                           ;main.c: 68:             EUSART_Write(Pack[3]);
  2363  0457  0021               	movlb	1	; select bank1
  2364  0458  0827               	movf	(main@Pack^(0+128)+3),w
  2365  0459  318E  26DF  3183   	fcall	_EUSART_Write
  2366  045C                     l3185:
  2367                           
  2368                           ;main.c: 69:             EUSART_Write(Pack[4]);
  2369  045C  0021               	movlb	1	; select bank1
  2370  045D  0828               	movf	(main@Pack^(0+128)+4),w
  2371  045E  318E  26DF  3183   	fcall	_EUSART_Write
  2372  0461                     l3187:
  2373                           
  2374                           ;main.c: 70:             EUSART_Write(Pack[5]);
  2375  0461  0021               	movlb	1	; select bank1
  2376  0462  0829               	movf	(main@Pack^(0+128)+5),w
  2377  0463  318E  26DF  3183   	fcall	_EUSART_Write
  2378  0466                     l3189:
  2379                           
  2380                           ;main.c: 73:         if(ADC_flag){
  2381  0466  0020               	movlb	0	; select bank0
  2382  0467  0856               	movf	_ADC_flag,w	;volatile
  2383  0468  1903               	btfsc	3,2
  2384  0469  2C6B               	goto	u2751
  2385  046A  2C6C               	goto	u2750
  2386  046B                     u2751:
  2387  046B  2BFB               	goto	l3147
  2388  046C                     u2750:
  2389  046C                     l3191:
  2390                           
  2391                           ;main.c: 74:    ADC_flag = 0;
  2392  046C  01D6               	clrf	_ADC_flag	;volatile
  2393  046D                     l3193:
  2394                           
  2395                           ;main.c: 76:    valor_ADC = num_ADC;
  2396  046D  0021               	movlb	1	; select bank1
  2397  046E  083C               	movf	(_num_ADC+1)^(0+128),w	;volatile
  2398  046F  00A1               	movwf	(main@valor_ADC+1)^(0+128)
  2399  0470  083B               	movf	_num_ADC^(0+128),w	;volatile
  2400  0471  00A0               	movwf	main@valor_ADC^(0+128)
  2401  0472                     l3195:
  2402                           
  2403                           ;main.c: 77:             volt_ADC = Ds_Conversor_ADC(valor_ADC);
  2404  0472  0821               	movf	(main@valor_ADC+1)^(0+128),w
  2405  0473  0020               	movlb	0	; select bank0
  2406  0474  00CE               	movwf	Ds_Conversor_ADC@adcOUT+1
  2407  0475  0021               	movlb	1	; select bank1
  2408  0476  0820               	movf	main@valor_ADC^(0+128),w
  2409  0477  0020               	movlb	0	; select bank0
  2410  0478  00CD               	movwf	Ds_Conversor_ADC@adcOUT
  2411  0479  3187  277F  3183   	fcall	_Ds_Conversor_ADC
  2412  047C  0020               	movlb	0	; select bank0
  2413  047D  084E               	movf	?_Ds_Conversor_ADC+1,w
  2414  047E  0021               	movlb	1	; select bank1
  2415  047F  00A3               	movwf	(main@volt_ADC+1)^(0+128)
  2416  0480  0020               	movlb	0	; select bank0
  2417  0481  084D               	movf	?_Ds_Conversor_ADC,w
  2418  0482  0021               	movlb	1	; select bank1
  2419  0483  00A2               	movwf	main@volt_ADC^(0+128)
  2420  0484                     l3197:
  2421                           
  2422                           ;main.c: 78:             Ds_Convertir_en_uni(&seven_seg, volt_ADC);
  2423  0484  0823               	movf	(main@volt_ADC+1)^(0+128),w
  2424  0485  0020               	movlb	0	; select bank0
  2425  0486  00A4               	movwf	Ds_Convertir_en_uni@voltaje+1
  2426  0487  0021               	movlb	1	; select bank1
  2427  0488  0822               	movf	main@volt_ADC^(0+128),w
  2428  0489  0020               	movlb	0	; select bank0
  2429  048A  00A3               	movwf	Ds_Convertir_en_uni@voltaje
  2430  048B  30B3               	movlw	(low (main@seven_seg| 0))& (0+255)
  2431  048C  3186  26A5  3183   	fcall	_Ds_Convertir_en_uni
  2432  048F  2BFB               	goto	l3147
  2433  0490  3180  2828         	ljmp	start
  2434  0492                     __end_of_main:
  2435                           
  2436                           	psect	text1
  2437  0645                     __ptext1:	
  2438 ;; *************** function _Tm_Procese_tiempo *****************
  2439 ;; Defined at:
  2440 ;;		line 17 in file "nuestrostimers.c"
  2441 ;; Parameters:    Size  Location     Type
  2442 ;;  ctp             1    wreg     PTR struct Tm_Periodico
  2443 ;;		 -> main@timer_1ms(9), 
  2444 ;; Auto vars:     Size  Location     Type
  2445 ;;  ctp             1    7[COMMON] PTR struct Tm_Periodico
  2446 ;;		 -> main@timer_1ms(9), 
  2447 ;; Return value:  Size  Location     Type
  2448 ;;                  1    wreg      void 
  2449 ;; Registers used:
  2450 ;;		wreg, fsr0l, fsr0h, fsr1l, fsr1h, status,2, status,0
  2451 ;; Tracked objects:
  2452 ;;		On entry : 0/0
  2453 ;;		On exit  : 0/0
  2454 ;;		Unchanged: 0/0
  2455 ;; Data sizes:     COMMON   BANK0   BANK1   BANK2   BANK3   BANK4
  2456 ;;      Params:         0       0       0       0       0       0
  2457 ;;      Locals:         1       0       0       0       0       0
  2458 ;;      Temps:          4       0       0       0       0       0
  2459 ;;      Totals:         5       0       0       0       0       0
  2460 ;;Total ram usage:        5 bytes
  2461 ;; Hardware stack levels used: 1
  2462 ;; Hardware stack levels required when called: 4
  2463 ;; This function calls:
  2464 ;;		Nothing
  2465 ;; This function is called by:
  2466 ;;		_main
  2467 ;; This function uses a non-reentrant model
  2468 ;;
  2469                           
  2470                           
  2471                           ;psect for function _Tm_Procese_tiempo
  2472  0645                     _Tm_Procese_tiempo:
  2473                           
  2474                           ;incstack = 0
  2475                           ; Regs used in _Tm_Procese_tiempo: [wreg-fsr1h+status,2+status,0]
  2476                           ;Tm_Procese_tiempo@ctp stored from wreg
  2477  0645  00F7               	movwf	Tm_Procese_tiempo@ctp
  2478  0646                     l3015:
  2479                           
  2480                           ;nuestrostimers.c: 17: void Tm_Procese_tiempo (Tm_Periodico *ctp);nuestrostimers.c: 18: 
      +                          {;nuestrostimers.c: 21:  if (ctp->banderas & 0x01U)
  2481  0646  0877               	movf	Tm_Procese_tiempo@ctp,w
  2482  0647  3E08               	addlw	8
  2483  0648  0086               	movwf	6
  2484  0649  0187               	clrf	7
  2485  064A  1C01               	btfss	1,0
  2486  064B  2E4D               	goto	u2631
  2487  064C  2E4E               	goto	u2630
  2488  064D                     u2631:
  2489  064D  2E70               	goto	l3025
  2490  064E                     u2630:
  2491  064E                     l3017:
  2492                           
  2493                           ;nuestrostimers.c: 22:  {;nuestrostimers.c: 23:   --(ctp->contador);
  2494  064E  0877               	movf	Tm_Procese_tiempo@ctp,w
  2495  064F  0086               	movwf	6
  2496  0650  0187               	clrf	7
  2497  0651  3001               	movlw	1
  2498  0652  0281               	subwf	1,f
  2499  0653  3141               	addfsr 1,1
  2500  0654  3000               	movlw	0
  2501  0655  3B81               	subwfb	1,f
  2502  0656  317F               	addfsr 1,-1
  2503  0657                     l3019:
  2504                           
  2505                           ;nuestrostimers.c: 24:   if ( !(ctp->contador) )
  2506  0657  0877               	movf	Tm_Procese_tiempo@ctp,w
  2507  0658  0086               	movwf	6
  2508  0659  0187               	clrf	7
  2509  065A  0016               	moviw fsr1++
  2510  065B  0401               	iorwf	1,w
  2511  065C  1D03               	btfss	3,2
  2512  065D  2E5F               	goto	u2641
  2513  065E  2E60               	goto	u2640
  2514  065F                     u2641:
  2515  065F  2E70               	goto	l3025
  2516  0660                     u2640:
  2517  0660                     l3021:
  2518                           
  2519                           ;nuestrostimers.c: 25:   {;nuestrostimers.c: 26:    ctp->banderas |= 0x02U;
  2520  0660  0877               	movf	Tm_Procese_tiempo@ctp,w
  2521  0661  3E08               	addlw	8
  2522  0662  0086               	movwf	6
  2523  0663  0187               	clrf	7
  2524  0664  1481               	bsf	1,1
  2525  0665                     l3023:
  2526                           
  2527                           ;nuestrostimers.c: 27:    ctp->contador = ctp-> periodo;
  2528  0665  0877               	movf	Tm_Procese_tiempo@ctp,w
  2529  0666  3E02               	addlw	2
  2530  0667  0086               	movwf	6
  2531  0668  0187               	clrf	7
  2532  0669  0877               	movf	Tm_Procese_tiempo@ctp,w
  2533  066A  0084               	movwf	4
  2534  066B  0185               	clrf	5
  2535  066C  3F40               	moviw [0]fsr1
  2536  066D  3F80               	movwi [0]fsr0
  2537  066E  3F41               	moviw [1]fsr1
  2538  066F  3F81               	movwi [1]fsr0
  2539  0670                     l3025:
  2540                           
  2541                           ;nuestrostimers.c: 30:  if ((ctp->timeout))
  2542  0670  0877               	movf	Tm_Procese_tiempo@ctp,w
  2543  0671  3E04               	addlw	4
  2544  0672  0086               	movwf	6
  2545  0673  0187               	clrf	7
  2546  0674  3F40               	moviw [0]fsr1
  2547  0675  00F3               	movwf	??_Tm_Procese_tiempo
  2548  0676  3F41               	moviw [1]fsr1
  2549  0677  00F4               	movwf	??_Tm_Procese_tiempo+1
  2550  0678  3F42               	moviw [2]fsr1
  2551  0679  00F5               	movwf	??_Tm_Procese_tiempo+2
  2552  067A  3F43               	moviw [3]fsr1
  2553  067B  00F6               	movwf	??_Tm_Procese_tiempo+3
  2554  067C  0876               	movf	??_Tm_Procese_tiempo+3,w
  2555  067D  0475               	iorwf	??_Tm_Procese_tiempo+2,w
  2556  067E  0474               	iorwf	??_Tm_Procese_tiempo+1,w
  2557  067F  0473               	iorwf	??_Tm_Procese_tiempo,w
  2558  0680  1903               	skipnz
  2559  0681  2E83               	goto	u2651
  2560  0682  2E84               	goto	u2650
  2561  0683                     u2651:
  2562  0683  2EA4               	goto	l564
  2563  0684                     u2650:
  2564  0684                     l3027:
  2565                           
  2566                           ;nuestrostimers.c: 31:   ctp->timeout=ctp->timeout-1;
  2567  0684  30FF               	movlw	255
  2568  0685  00F3               	movwf	??_Tm_Procese_tiempo
  2569  0686  30FF               	movlw	255
  2570  0687  00F4               	movwf	??_Tm_Procese_tiempo+1
  2571  0688  30FF               	movlw	255
  2572  0689  00F5               	movwf	??_Tm_Procese_tiempo+2
  2573  068A  30FF               	movlw	255
  2574  068B  00F6               	movwf	??_Tm_Procese_tiempo+3
  2575  068C  0877               	movf	Tm_Procese_tiempo@ctp,w
  2576  068D  3E04               	addlw	4
  2577  068E  0086               	movwf	6
  2578  068F  0187               	clrf	7
  2579  0690  3F40               	moviw [0]fsr1
  2580  0691  07F3               	addwf	??_Tm_Procese_tiempo,f
  2581  0692  3F41               	moviw [1]fsr1
  2582  0693  3DF4               	addwfc	??_Tm_Procese_tiempo+1,f
  2583  0694  3F42               	moviw [2]fsr1
  2584  0695  3DF5               	addwfc	??_Tm_Procese_tiempo+2,f
  2585  0696  3F43               	moviw [3]fsr1
  2586  0697  3DF6               	addwfc	??_Tm_Procese_tiempo+3,f
  2587  0698  0877               	movf	Tm_Procese_tiempo@ctp,w
  2588  0699  3E04               	addlw	4
  2589  069A  0086               	movwf	6
  2590  069B  0187               	clrf	7
  2591  069C  0873               	movf	??_Tm_Procese_tiempo,w
  2592  069D  3FC0               	movwi [0]fsr1
  2593  069E  0874               	movf	??_Tm_Procese_tiempo+1,w
  2594  069F  3FC1               	movwi [1]fsr1
  2595  06A0  0875               	movf	??_Tm_Procese_tiempo+2,w
  2596  06A1  3FC2               	movwi [2]fsr1
  2597  06A2  0876               	movf	??_Tm_Procese_tiempo+3,w
  2598  06A3  3FC3               	movwi [3]fsr1
  2599  06A4                     l564:
  2600  06A4  0008               	return
  2601  06A5                     __end_of_Tm_Procese_tiempo:
  2602                           
  2603                           	psect	text2
  2604  0F76                     __ptext2:	
  2605 ;; *************** function _Tm_Inicie_periodico *****************
  2606 ;; Defined at:
  2607 ;;		line 11 in file "nuestrostimers.c"
  2608 ;; Parameters:    Size  Location     Type
  2609 ;;  ctp             1    wreg     PTR struct Tm_Periodico
  2610 ;;		 -> main@timer_1ms(9), 
  2611 ;;  periodo         2    3[COMMON] unsigned int 
  2612 ;; Auto vars:     Size  Location     Type
  2613 ;;  ctp             1    6[COMMON] PTR struct Tm_Periodico
  2614 ;;		 -> main@timer_1ms(9), 
  2615 ;; Return value:  Size  Location     Type
  2616 ;;                  1    wreg      void 
  2617 ;; Registers used:
  2618 ;;		wreg, fsr1l, fsr1h, status,2, status,0
  2619 ;; Tracked objects:
  2620 ;;		On entry : 0/0
  2621 ;;		On exit  : 0/0
  2622 ;;		Unchanged: 0/0
  2623 ;; Data sizes:     COMMON   BANK0   BANK1   BANK2   BANK3   BANK4
  2624 ;;      Params:         2       0       0       0       0       0
  2625 ;;      Locals:         1       0       0       0       0       0
  2626 ;;      Temps:          1       0       0       0       0       0
  2627 ;;      Totals:         4       0       0       0       0       0
  2628 ;;Total ram usage:        4 bytes
  2629 ;; Hardware stack levels used: 1
  2630 ;; Hardware stack levels required when called: 4
  2631 ;; This function calls:
  2632 ;;		Nothing
  2633 ;; This function is called by:
  2634 ;;		_main
  2635 ;; This function uses a non-reentrant model
  2636 ;;
  2637                           
  2638                           
  2639                           ;psect for function _Tm_Inicie_periodico
  2640  0F76                     _Tm_Inicie_periodico:
  2641                           
  2642                           ;incstack = 0
  2643                           ; Regs used in _Tm_Inicie_periodico: [wreg+fsr1l+fsr1h+status,2+status,0]
  2644                           ;Tm_Inicie_periodico@ctp stored from wreg
  2645  0F76  00F6               	movwf	Tm_Inicie_periodico@ctp
  2646  0F77                     l2999:
  2647                           
  2648                           ;nuestrostimers.c: 11: void Tm_Inicie_periodico (Tm_Periodico *ctp,unsigned int periodo)
      +                          ;nuestrostimers.c: 12: {;nuestrostimers.c: 13:  ctp->banderas |= 0x01U;
  2649  0F77  0876               	movf	Tm_Inicie_periodico@ctp,w
  2650  0F78  3E08               	addlw	8
  2651  0F79  0086               	movwf	6
  2652  0F7A  0187               	clrf	7
  2653  0F7B  1401               	bsf	1,0
  2654                           
  2655                           ;nuestrostimers.c: 14:  ctp->banderas &= ~0x02U;
  2656  0F7C  30FD               	movlw	253
  2657  0F7D  00F5               	movwf	??_Tm_Inicie_periodico
  2658  0F7E  0876               	movf	Tm_Inicie_periodico@ctp,w
  2659  0F7F  3E08               	addlw	8
  2660  0F80  0086               	movwf	6
  2661  0F81  0187               	clrf	7
  2662  0F82  0875               	movf	??_Tm_Inicie_periodico,w
  2663  0F83  0581               	andwf	1,f
  2664                           
  2665                           ;nuestrostimers.c: 15:  ctp->contador = ctp->periodo = periodo;
  2666  0F84  0876               	movf	Tm_Inicie_periodico@ctp,w
  2667  0F85  3E02               	addlw	2
  2668  0F86  0086               	movwf	6
  2669  0F87  0187               	clrf	7
  2670  0F88  0873               	movf	Tm_Inicie_periodico@periodo,w
  2671  0F89  3FC0               	movwi [0]fsr1
  2672  0F8A  0874               	movf	Tm_Inicie_periodico@periodo+1,w
  2673  0F8B  3FC1               	movwi [1]fsr1
  2674  0F8C  0876               	movf	Tm_Inicie_periodico@ctp,w
  2675  0F8D  0086               	movwf	6
  2676  0F8E  0187               	clrf	7
  2677  0F8F  0873               	movf	Tm_Inicie_periodico@periodo,w
  2678  0F90  3FC0               	movwi [0]fsr1
  2679  0F91  0874               	movf	Tm_Inicie_periodico@periodo+1,w
  2680  0F92  3FC1               	movwi [1]fsr1
  2681  0F93                     l558:
  2682  0F93  0008               	return
  2683  0F94                     __end_of_Tm_Inicie_periodico:
  2684                           
  2685                           	psect	text3
  2686  0ED7                     __ptext3:	
  2687 ;; *************** function _Tm_Hubo_periodico *****************
  2688 ;; Defined at:
  2689 ;;		line 36 in file "nuestrostimers.c"
  2690 ;; Parameters:    Size  Location     Type
  2691 ;;  ctp             1    wreg     PTR struct Tm_Periodico
  2692 ;;		 -> main@timer_1ms(9), 
  2693 ;; Auto vars:     Size  Location     Type
  2694 ;;  ctp             1    3[COMMON] PTR struct Tm_Periodico
  2695 ;;		 -> main@timer_1ms(9), 
  2696 ;; Return value:  Size  Location     Type
  2697 ;;                  1    wreg      unsigned char 
  2698 ;; Registers used:
  2699 ;;		wreg, fsr1l, fsr1h, status,2, status,0
  2700 ;; Tracked objects:
  2701 ;;		On entry : 0/0
  2702 ;;		On exit  : 0/0
  2703 ;;		Unchanged: 0/0
  2704 ;; Data sizes:     COMMON   BANK0   BANK1   BANK2   BANK3   BANK4
  2705 ;;      Params:         0       0       0       0       0       0
  2706 ;;      Locals:         1       0       0       0       0       0
  2707 ;;      Temps:          0       0       0       0       0       0
  2708 ;;      Totals:         1       0       0       0       0       0
  2709 ;;Total ram usage:        1 bytes
  2710 ;; Hardware stack levels used: 1
  2711 ;; Hardware stack levels required when called: 4
  2712 ;; This function calls:
  2713 ;;		Nothing
  2714 ;; This function is called by:
  2715 ;;		_main
  2716 ;; This function uses a non-reentrant model
  2717 ;;
  2718                           
  2719                           
  2720                           ;psect for function _Tm_Hubo_periodico
  2721  0ED7                     _Tm_Hubo_periodico:
  2722                           
  2723                           ;incstack = 0
  2724                           ; Regs used in _Tm_Hubo_periodico: [wreg+fsr1l+fsr1h+status,2+status,0]
  2725                           ;Tm_Hubo_periodico@ctp stored from wreg
  2726  0ED7  00F3               	movwf	Tm_Hubo_periodico@ctp
  2727  0ED8                     l3095:
  2728                           
  2729                           ;nuestrostimers.c: 36: char Tm_Hubo_periodico (Tm_Periodico *ctp);nuestrostimers.c: 37: 
      +                          {;nuestrostimers.c: 38:  return (ctp->banderas & 0x02U);
  2730  0ED8  0873               	movf	Tm_Hubo_periodico@ctp,w
  2731  0ED9  3E08               	addlw	8
  2732  0EDA  0086               	movwf	6
  2733  0EDB  0187               	clrf	7
  2734  0EDC  0801               	movf	1,w
  2735  0EDD  3902               	andlw	2
  2736  0EDE                     l567:
  2737  0EDE  0008               	return
  2738  0EDF                     __end_of_Tm_Hubo_periodico:
  2739                           
  2740                           	psect	text4
  2741  0EE9                     __ptext4:	
  2742 ;; *************** function _Tm_Baje_periodico *****************
  2743 ;; Defined at:
  2744 ;;		line 43 in file "nuestrostimers.c"
  2745 ;; Parameters:    Size  Location     Type
  2746 ;;  ctp             1    wreg     PTR struct Tm_Periodico
  2747 ;;		 -> main@timer_1ms(9), 
  2748 ;; Auto vars:     Size  Location     Type
  2749 ;;  ctp             1    4[COMMON] PTR struct Tm_Periodico
  2750 ;;		 -> main@timer_1ms(9), 
  2751 ;; Return value:  Size  Location     Type
  2752 ;;                  1    wreg      void 
  2753 ;; Registers used:
  2754 ;;		wreg, fsr1l, fsr1h, status,2, status,0
  2755 ;; Tracked objects:
  2756 ;;		On entry : 0/0
  2757 ;;		On exit  : 0/0
  2758 ;;		Unchanged: 0/0
  2759 ;; Data sizes:     COMMON   BANK0   BANK1   BANK2   BANK3   BANK4
  2760 ;;      Params:         0       0       0       0       0       0
  2761 ;;      Locals:         1       0       0       0       0       0
  2762 ;;      Temps:          1       0       0       0       0       0
  2763 ;;      Totals:         2       0       0       0       0       0
  2764 ;;Total ram usage:        2 bytes
  2765 ;; Hardware stack levels used: 1
  2766 ;; Hardware stack levels required when called: 4
  2767 ;; This function calls:
  2768 ;;		Nothing
  2769 ;; This function is called by:
  2770 ;;		_main
  2771 ;; This function uses a non-reentrant model
  2772 ;;
  2773                           
  2774                           
  2775                           ;psect for function _Tm_Baje_periodico
  2776  0EE9                     _Tm_Baje_periodico:
  2777                           
  2778                           ;incstack = 0
  2779                           ; Regs used in _Tm_Baje_periodico: [wreg+fsr1l+fsr1h+status,2+status,0]
  2780                           ;Tm_Baje_periodico@ctp stored from wreg
  2781  0EE9  00F4               	movwf	Tm_Baje_periodico@ctp
  2782  0EEA                     l3099:
  2783                           
  2784                           ;nuestrostimers.c: 43: void Tm_Baje_periodico (Tm_Periodico *ctp);nuestrostimers.c: 44: 
      +                          {;nuestrostimers.c: 45:  ctp->banderas &= ~0x02U;
  2785  0EEA  30FD               	movlw	253
  2786  0EEB  00F3               	movwf	??_Tm_Baje_periodico
  2787  0EEC  0874               	movf	Tm_Baje_periodico@ctp,w
  2788  0EED  3E08               	addlw	8
  2789  0EEE  0086               	movwf	6
  2790  0EEF  0187               	clrf	7
  2791  0EF0  0873               	movf	??_Tm_Baje_periodico,w
  2792  0EF1  0581               	andwf	1,f
  2793  0EF2                     l570:
  2794  0EF2  0008               	return
  2795  0EF3                     __end_of_Tm_Baje_periodico:
  2796                           
  2797                           	psect	text5
  2798  0EAB                     __ptext5:	
  2799 ;; *************** function _TMR6_StartTimer *****************
  2800 ;; Defined at:
  2801 ;;		line 87 in file "mcc_generated_files/tmr6.c"
  2802 ;; Parameters:    Size  Location     Type
  2803 ;;		None
  2804 ;; Auto vars:     Size  Location     Type
  2805 ;;		None
  2806 ;; Return value:  Size  Location     Type
  2807 ;;                  1    wreg      void 
  2808 ;; Registers used:
  2809 ;;		None
  2810 ;; Tracked objects:
  2811 ;;		On entry : 0/0
  2812 ;;		On exit  : 0/0
  2813 ;;		Unchanged: 0/0
  2814 ;; Data sizes:     COMMON   BANK0   BANK1   BANK2   BANK3   BANK4
  2815 ;;      Params:         0       0       0       0       0       0
  2816 ;;      Locals:         0       0       0       0       0       0
  2817 ;;      Temps:          0       0       0       0       0       0
  2818 ;;      Totals:         0       0       0       0       0       0
  2819 ;;Total ram usage:        0 bytes
  2820 ;; Hardware stack levels used: 1
  2821 ;; Hardware stack levels required when called: 4
  2822 ;; This function calls:
  2823 ;;		Nothing
  2824 ;; This function is called by:
  2825 ;;		_main
  2826 ;; This function uses a non-reentrant model
  2827 ;;
  2828                           
  2829                           
  2830                           ;psect for function _TMR6_StartTimer
  2831  0EAB                     _TMR6_StartTimer:
  2832  0EAB                     l2969:	
  2833                           ;incstack = 0
  2834                           ; Regs used in _TMR6_StartTimer: []
  2835                           
  2836                           
  2837                           ;mcc_generated_files/tmr6.c: 90:     T6CONbits.TMR6ON = 1;
  2838  0EAB  0028               	movlb	8	; select bank8
  2839  0EAC  151E               	bsf	30,2	;volatile
  2840  0EAD                     l24:
  2841  0EAD  0008               	return
  2842  0EAE                     __end_of_TMR6_StartTimer:
  2843                           
  2844                           	psect	text6
  2845  0F4D                     __ptext6:	
  2846 ;; *************** function _SYSTEM_Initialize *****************
  2847 ;; Defined at:
  2848 ;;		line 50 in file "mcc_generated_files/mcc.c"
  2849 ;; Parameters:    Size  Location     Type
  2850 ;;		None
  2851 ;; Auto vars:     Size  Location     Type
  2852 ;;		None
  2853 ;; Return value:  Size  Location     Type
  2854 ;;                  1    wreg      void 
  2855 ;; Registers used:
  2856 ;;		wreg, status,2, status,0, pclath, cstack
  2857 ;; Tracked objects:
  2858 ;;		On entry : 0/0
  2859 ;;		On exit  : 0/0
  2860 ;;		Unchanged: 0/0
  2861 ;; Data sizes:     COMMON   BANK0   BANK1   BANK2   BANK3   BANK4
  2862 ;;      Params:         0       0       0       0       0       0
  2863 ;;      Locals:         0       0       0       0       0       0
  2864 ;;      Temps:          0       0       0       0       0       0
  2865 ;;      Totals:         0       0       0       0       0       0
  2866 ;;Total ram usage:        0 bytes
  2867 ;; Hardware stack levels used: 1
  2868 ;; Hardware stack levels required when called: 6
  2869 ;; This function calls:
  2870 ;;		_ADC_Initialize
  2871 ;;		_EUSART_Initialize
  2872 ;;		_OSCILLATOR_Initialize
  2873 ;;		_PIN_MANAGER_Initialize
  2874 ;;		_TMR6_Initialize
  2875 ;;		_WDT_Initialize
  2876 ;; This function is called by:
  2877 ;;		_main
  2878 ;; This function uses a non-reentrant model
  2879 ;;
  2880                           
  2881                           
  2882                           ;psect for function _SYSTEM_Initialize
  2883  0F4D                     _SYSTEM_Initialize:
  2884  0F4D                     l2989:	
  2885                           ;incstack = 0
  2886                           ; Regs used in _SYSTEM_Initialize: [wreg+status,2+status,0+pclath+cstack]
  2887                           
  2888                           
  2889                           ;mcc_generated_files/mcc.c: 53:     PIN_MANAGER_Initialize();
  2890  0F4D  318F  2760  318F   	fcall	_PIN_MANAGER_Initialize
  2891                           
  2892                           ;mcc_generated_files/mcc.c: 54:     OSCILLATOR_Initialize();
  2893  0F50  318E  26F3  318F   	fcall	_OSCILLATOR_Initialize
  2894  0F53                     l2991:
  2895                           
  2896                           ;mcc_generated_files/mcc.c: 55:     WDT_Initialize();
  2897  0F53  318E  26A8  318F   	fcall	_WDT_Initialize
  2898  0F56                     l2993:
  2899                           
  2900                           ;mcc_generated_files/mcc.c: 56:     TMR6_Initialize();
  2901  0F56  318F  273A  318F   	fcall	_TMR6_Initialize
  2902  0F59                     l2995:
  2903                           
  2904                           ;mcc_generated_files/mcc.c: 57:     ADC_Initialize();
  2905  0F59  3187  27F0  318F   	fcall	_ADC_Initialize
  2906  0F5C                     l2997:
  2907                           
  2908                           ;mcc_generated_files/mcc.c: 58:     EUSART_Initialize();
  2909  0F5C  318F  2794  318F   	fcall	_EUSART_Initialize
  2910  0F5F                     l243:
  2911  0F5F  0008               	return
  2912  0F60                     __end_of_SYSTEM_Initialize:
  2913                           
  2914                           	psect	text7
  2915  0EA8                     __ptext7:	
  2916 ;; *************** function _WDT_Initialize *****************
  2917 ;; Defined at:
  2918 ;;		line 75 in file "mcc_generated_files/mcc.c"
  2919 ;; Parameters:    Size  Location     Type
  2920 ;;		None
  2921 ;; Auto vars:     Size  Location     Type
  2922 ;;		None
  2923 ;; Return value:  Size  Location     Type
  2924 ;;                  1    wreg      void 
  2925 ;; Registers used:
  2926 ;;		status,2
  2927 ;; Tracked objects:
  2928 ;;		On entry : 0/0
  2929 ;;		On exit  : 0/0
  2930 ;;		Unchanged: 0/0
  2931 ;; Data sizes:     COMMON   BANK0   BANK1   BANK2   BANK3   BANK4
  2932 ;;      Params:         0       0       0       0       0       0
  2933 ;;      Locals:         0       0       0       0       0       0
  2934 ;;      Temps:          0       0       0       0       0       0
  2935 ;;      Totals:         0       0       0       0       0       0
  2936 ;;Total ram usage:        0 bytes
  2937 ;; Hardware stack levels used: 1
  2938 ;; Hardware stack levels required when called: 4
  2939 ;; This function calls:
  2940 ;;		Nothing
  2941 ;; This function is called by:
  2942 ;;		_SYSTEM_Initialize
  2943 ;; This function uses a non-reentrant model
  2944 ;;
  2945                           
  2946                           
  2947                           ;psect for function _WDT_Initialize
  2948  0EA8                     _WDT_Initialize:
  2949  0EA8                     l2683:	
  2950                           ;incstack = 0
  2951                           ; Regs used in _WDT_Initialize: [status,2]
  2952                           
  2953                           
  2954                           ;mcc_generated_files/mcc.c: 78:     WDTCON = 0x00;
  2955  0EA8  0021               	movlb	1	; select bank1
  2956  0EA9  0197               	clrf	23	;volatile
  2957  0EAA                     l252:
  2958  0EAA  0008               	return
  2959  0EAB                     __end_of_WDT_Initialize:
  2960                           
  2961                           	psect	text8
  2962  0F3A                     __ptext8:	
  2963 ;; *************** function _TMR6_Initialize *****************
  2964 ;; Defined at:
  2965 ;;		line 64 in file "mcc_generated_files/tmr6.c"
  2966 ;; Parameters:    Size  Location     Type
  2967 ;;		None
  2968 ;; Auto vars:     Size  Location     Type
  2969 ;;		None
  2970 ;; Return value:  Size  Location     Type
  2971 ;;                  1    wreg      void 
  2972 ;; Registers used:
  2973 ;;		wreg, status,2, status,0, pclath, cstack
  2974 ;; Tracked objects:
  2975 ;;		On entry : 0/0
  2976 ;;		On exit  : 0/0
  2977 ;;		Unchanged: 0/0
  2978 ;; Data sizes:     COMMON   BANK0   BANK1   BANK2   BANK3   BANK4
  2979 ;;      Params:         0       0       0       0       0       0
  2980 ;;      Locals:         0       0       0       0       0       0
  2981 ;;      Temps:          0       0       0       0       0       0
  2982 ;;      Totals:         0       0       0       0       0       0
  2983 ;;Total ram usage:        0 bytes
  2984 ;; Hardware stack levels used: 1
  2985 ;; Hardware stack levels required when called: 5
  2986 ;; This function calls:
  2987 ;;		_TMR6_SetInterruptHandler
  2988 ;; This function is called by:
  2989 ;;		_SYSTEM_Initialize
  2990 ;; This function uses a non-reentrant model
  2991 ;;
  2992                           
  2993                           
  2994                           ;psect for function _TMR6_Initialize
  2995  0F3A                     _TMR6_Initialize:
  2996  0F3A                     l2633:	
  2997                           ;incstack = 0
  2998                           ; Regs used in _TMR6_Initialize: [wreg+status,2+status,0+pclath+cstack]
  2999                           
  3000                           
  3001                           ;mcc_generated_files/tmr6.c: 69:     PR6 = 0xF9;
  3002  0F3A  30F9               	movlw	249
  3003  0F3B  0028               	movlb	8	; select bank8
  3004  0F3C  009D               	movwf	29	;volatile
  3005  0F3D                     l2635:
  3006                           
  3007                           ;mcc_generated_files/tmr6.c: 72:     TMR6 = 0x00;
  3008  0F3D  019C               	clrf	28	;volatile
  3009  0F3E                     l2637:
  3010                           
  3011                           ;mcc_generated_files/tmr6.c: 75:     PIR3bits.TMR6IF = 0;
  3012  0F3E  0020               	movlb	0	; select bank0
  3013  0F3F  1193               	bcf	19,3	;volatile
  3014  0F40                     l2639:
  3015                           
  3016                           ;mcc_generated_files/tmr6.c: 78:     PIE3bits.TMR6IE = 1;
  3017  0F40  0021               	movlb	1	; select bank1
  3018  0F41  1593               	bsf	19,3	;volatile
  3019  0F42                     l2641:
  3020                           
  3021                           ;mcc_generated_files/tmr6.c: 81:     TMR6_SetInterruptHandler(TMR6_DefaultInterruptHandl
      +                          er);
  3022  0F42  3003               	movlw	low _TMR6_DefaultInterruptHandler
  3023  0F43  00F3               	movwf	TMR6_SetInterruptHandler@InterruptHandler
  3024  0F44  3000               	movlw	high _TMR6_DefaultInterruptHandler
  3025  0F45  00F4               	movwf	TMR6_SetInterruptHandler@InterruptHandler+1
  3026  0F46  318E  26D1  318F   	fcall	_TMR6_SetInterruptHandler
  3027  0F49                     l2643:
  3028                           
  3029                           ;mcc_generated_files/tmr6.c: 84:     T6CON = 0x3D;
  3030  0F49  303D               	movlw	61
  3031  0F4A  0028               	movlb	8	; select bank8
  3032  0F4B  009E               	movwf	30	;volatile
  3033  0F4C                     l21:
  3034  0F4C  0008               	return
  3035  0F4D                     __end_of_TMR6_Initialize:
  3036                           
  3037                           	psect	text9
  3038  0ED1                     __ptext9:	
  3039 ;; *************** function _TMR6_SetInterruptHandler *****************
  3040 ;; Defined at:
  3041 ;;		line 132 in file "mcc_generated_files/tmr6.c"
  3042 ;; Parameters:    Size  Location     Type
  3043 ;;  InterruptHan    2    3[COMMON] PTR FTN()void 
  3044 ;;		 -> Interrupcion_timer(1), TMR6_DefaultInterruptHandler(1), 
  3045 ;; Auto vars:     Size  Location     Type
  3046 ;;		None
  3047 ;; Return value:  Size  Location     Type
  3048 ;;                  1    wreg      void 
  3049 ;; Registers used:
  3050 ;;		wreg
  3051 ;; Tracked objects:
  3052 ;;		On entry : 0/0
  3053 ;;		On exit  : 0/0
  3054 ;;		Unchanged: 0/0
  3055 ;; Data sizes:     COMMON   BANK0   BANK1   BANK2   BANK3   BANK4
  3056 ;;      Params:         2       0       0       0       0       0
  3057 ;;      Locals:         0       0       0       0       0       0
  3058 ;;      Temps:          0       0       0       0       0       0
  3059 ;;      Totals:         2       0       0       0       0       0
  3060 ;;Total ram usage:        2 bytes
  3061 ;; Hardware stack levels used: 1
  3062 ;; Hardware stack levels required when called: 4
  3063 ;; This function calls:
  3064 ;;		Nothing
  3065 ;; This function is called by:
  3066 ;;		_TMR6_Initialize
  3067 ;;		_main
  3068 ;; This function uses a non-reentrant model
  3069 ;;
  3070                           
  3071                           
  3072                           ;psect for function _TMR6_SetInterruptHandler
  3073  0ED1                     _TMR6_SetInterruptHandler:
  3074  0ED1                     l2609:	
  3075                           ;incstack = 0
  3076                           ; Regs used in _TMR6_SetInterruptHandler: [wreg]
  3077                           
  3078                           
  3079                           ;mcc_generated_files/tmr6.c: 133:     TMR6_InterruptHandler = InterruptHandler;
  3080  0ED1  0874               	movf	TMR6_SetInterruptHandler@InterruptHandler+1,w
  3081  0ED2  0021               	movlb	1	; select bank1
  3082  0ED3  00C6               	movwf	(_TMR6_InterruptHandler+1)^(0+128)
  3083  0ED4  0873               	movf	TMR6_SetInterruptHandler@InterruptHandler,w
  3084  0ED5  00C5               	movwf	_TMR6_InterruptHandler^(0+128)
  3085  0ED6                     l43:
  3086  0ED6  0008               	return
  3087  0ED7                     __end_of_TMR6_SetInterruptHandler:
  3088                           
  3089                           	psect	text10
  3090  0F60                     __ptext10:	
  3091 ;; *************** function _PIN_MANAGER_Initialize *****************
  3092 ;; Defined at:
  3093 ;;		line 55 in file "mcc_generated_files/pin_manager.c"
  3094 ;; Parameters:    Size  Location     Type
  3095 ;;		None
  3096 ;; Auto vars:     Size  Location     Type
  3097 ;;		None
  3098 ;; Return value:  Size  Location     Type
  3099 ;;                  1    wreg      void 
  3100 ;; Registers used:
  3101 ;;		wreg, status,2
  3102 ;; Tracked objects:
  3103 ;;		On entry : 0/0
  3104 ;;		On exit  : 0/0
  3105 ;;		Unchanged: 0/0
  3106 ;; Data sizes:     COMMON   BANK0   BANK1   BANK2   BANK3   BANK4
  3107 ;;      Params:         0       0       0       0       0       0
  3108 ;;      Locals:         0       0       0       0       0       0
  3109 ;;      Temps:          0       0       0       0       0       0
  3110 ;;      Totals:         0       0       0       0       0       0
  3111 ;;Total ram usage:        0 bytes
  3112 ;; Hardware stack levels used: 1
  3113 ;; Hardware stack levels required when called: 4
  3114 ;; This function calls:
  3115 ;;		Nothing
  3116 ;; This function is called by:
  3117 ;;		_SYSTEM_Initialize
  3118 ;; This function uses a non-reentrant model
  3119 ;;
  3120                           
  3121                           
  3122                           ;psect for function _PIN_MANAGER_Initialize
  3123  0F60                     _PIN_MANAGER_Initialize:
  3124  0F60                     l2645:	
  3125                           ;incstack = 0
  3126                           ; Regs used in _PIN_MANAGER_Initialize: [wreg+status,2]
  3127                           
  3128                           
  3129                           ;mcc_generated_files/pin_manager.c: 60:     LATA = 0x00;
  3130  0F60  0022               	movlb	2	; select bank2
  3131  0F61  018C               	clrf	12	;volatile
  3132                           
  3133                           ;mcc_generated_files/pin_manager.c: 61:     LATB = 0x00;
  3134  0F62  018D               	clrf	13	;volatile
  3135  0F63                     l2647:
  3136                           
  3137                           ;mcc_generated_files/pin_manager.c: 66:     TRISA = 0x20;
  3138  0F63  3020               	movlw	32
  3139  0F64  0021               	movlb	1	; select bank1
  3140  0F65  008C               	movwf	12	;volatile
  3141  0F66                     l2649:
  3142                           
  3143                           ;mcc_generated_files/pin_manager.c: 67:     TRISB = 0xE6;
  3144  0F66  30E6               	movlw	230
  3145  0F67  008D               	movwf	13	;volatile
  3146  0F68                     l2651:
  3147                           
  3148                           ;mcc_generated_files/pin_manager.c: 72:     ANSELB = 0x38;
  3149  0F68  3038               	movlw	56
  3150  0F69  0023               	movlb	3	; select bank3
  3151  0F6A  008D               	movwf	13	;volatile
  3152  0F6B                     l2653:
  3153                           
  3154                           ;mcc_generated_files/pin_manager.c: 73:     ANSELA = 0x1F;
  3155  0F6B  301F               	movlw	31
  3156  0F6C  008C               	movwf	12	;volatile
  3157                           
  3158                           ;mcc_generated_files/pin_manager.c: 78:     WPUB = 0x00;
  3159  0F6D  0024               	movlb	4	; select bank4
  3160  0F6E  018D               	clrf	13	;volatile
  3161                           
  3162                           ;mcc_generated_files/pin_manager.c: 79:     WPUA = 0x00;
  3163  0F6F  018C               	clrf	12	;volatile
  3164  0F70                     l2655:
  3165                           
  3166                           ;mcc_generated_files/pin_manager.c: 80:     OPTION_REGbits.nWPUEN = 1;
  3167  0F70  0021               	movlb	1	; select bank1
  3168  0F71  1795               	bsf	21,7	;volatile
  3169                           
  3170                           ;mcc_generated_files/pin_manager.c: 86:     APFCON0 = 0x00;
  3171  0F72  0022               	movlb	2	; select bank2
  3172  0F73  019D               	clrf	29	;volatile
  3173                           
  3174                           ;mcc_generated_files/pin_manager.c: 87:     APFCON1 = 0x00;
  3175  0F74  019E               	clrf	30	;volatile
  3176  0F75                     l71:
  3177  0F75  0008               	return
  3178  0F76                     __end_of_PIN_MANAGER_Initialize:
  3179                           
  3180                           	psect	text11
  3181  0EF3                     __ptext11:	
  3182 ;; *************** function _OSCILLATOR_Initialize *****************
  3183 ;; Defined at:
  3184 ;;		line 61 in file "mcc_generated_files/mcc.c"
  3185 ;; Parameters:    Size  Location     Type
  3186 ;;		None
  3187 ;; Auto vars:     Size  Location     Type
  3188 ;;		None
  3189 ;; Return value:  Size  Location     Type
  3190 ;;                  1    wreg      void 
  3191 ;; Registers used:
  3192 ;;		wreg, status,2
  3193 ;; Tracked objects:
  3194 ;;		On entry : 0/0
  3195 ;;		On exit  : 0/0
  3196 ;;		Unchanged: 0/0
  3197 ;; Data sizes:     COMMON   BANK0   BANK1   BANK2   BANK3   BANK4
  3198 ;;      Params:         0       0       0       0       0       0
  3199 ;;      Locals:         0       0       0       0       0       0
  3200 ;;      Temps:          0       0       0       0       0       0
  3201 ;;      Totals:         0       0       0       0       0       0
  3202 ;;Total ram usage:        0 bytes
  3203 ;; Hardware stack levels used: 1
  3204 ;; Hardware stack levels required when called: 4
  3205 ;; This function calls:
  3206 ;;		Nothing
  3207 ;; This function is called by:
  3208 ;;		_SYSTEM_Initialize
  3209 ;; This function uses a non-reentrant model
  3210 ;;
  3211                           
  3212                           
  3213                           ;psect for function _OSCILLATOR_Initialize
  3214  0EF3                     _OSCILLATOR_Initialize:
  3215  0EF3                     l2677:	
  3216                           ;incstack = 0
  3217                           ; Regs used in _OSCILLATOR_Initialize: [wreg+status,2]
  3218                           
  3219                           
  3220                           ;mcc_generated_files/mcc.c: 64:     OSCCON = 0x70;
  3221  0EF3  3070               	movlw	112
  3222  0EF4  0021               	movlb	1	; select bank1
  3223  0EF5  0099               	movwf	25	;volatile
  3224  0EF6                     l2679:
  3225                           
  3226                           ;mcc_generated_files/mcc.c: 66:     OSCTUNE = 0x00;
  3227  0EF6  0198               	clrf	24	;volatile
  3228  0EF7                     l2681:
  3229                           
  3230                           ;mcc_generated_files/mcc.c: 68:     BORCON = 0x00;
  3231  0EF7  0022               	movlb	2	; select bank2
  3232  0EF8  0196               	clrf	22	;volatile
  3233  0EF9                     l246:	
  3234                           ;mcc_generated_files/mcc.c: 71:     {;mcc_generated_files/mcc.c: 72:     }
  3235                           
  3236                           
  3237                           ;mcc_generated_files/mcc.c: 70:     while(PLLR == 0)
  3238  0EF9  0021               	movlb	1	; select bank1
  3239  0EFA  1F1A               	btfss	26,6	;volatile
  3240  0EFB  2EFD               	goto	u1931
  3241  0EFC  2EFE               	goto	u1930
  3242  0EFD                     u1931:
  3243  0EFD  2EF9               	goto	l246
  3244  0EFE                     u1930:
  3245  0EFE                     l249:
  3246  0EFE  0008               	return
  3247  0EFF                     __end_of_OSCILLATOR_Initialize:
  3248                           
  3249                           	psect	text12
  3250  0F94                     __ptext12:	
  3251 ;; *************** function _EUSART_Initialize *****************
  3252 ;; Defined at:
  3253 ;;		line 66 in file "mcc_generated_files/eusart.c"
  3254 ;; Parameters:    Size  Location     Type
  3255 ;;		None
  3256 ;; Auto vars:     Size  Location     Type
  3257 ;;		None
  3258 ;; Return value:  Size  Location     Type
  3259 ;;                  1    wreg      void 
  3260 ;; Registers used:
  3261 ;;		wreg, status,2, status,0, pclath, cstack
  3262 ;; Tracked objects:
  3263 ;;		On entry : 0/0
  3264 ;;		On exit  : 0/0
  3265 ;;		Unchanged: 0/0
  3266 ;; Data sizes:     COMMON   BANK0   BANK1   BANK2   BANK3   BANK4
  3267 ;;      Params:         0       0       0       0       0       0
  3268 ;;      Locals:         0       0       0       0       0       0
  3269 ;;      Temps:          0       0       0       0       0       0
  3270 ;;      Totals:         0       0       0       0       0       0
  3271 ;;Total ram usage:        0 bytes
  3272 ;; Hardware stack levels used: 1
  3273 ;; Hardware stack levels required when called: 5
  3274 ;; This function calls:
  3275 ;;		_EUSART_SetErrorHandler
  3276 ;;		_EUSART_SetFramingErrorHandler
  3277 ;;		_EUSART_SetOverrunErrorHandler
  3278 ;; This function is called by:
  3279 ;;		_SYSTEM_Initialize
  3280 ;; This function uses a non-reentrant model
  3281 ;;
  3282                           
  3283                           
  3284                           ;psect for function _EUSART_Initialize
  3285  0F94                     _EUSART_Initialize:
  3286  0F94                     l2657:	
  3287                           ;incstack = 0
  3288                           ; Regs used in _EUSART_Initialize: [wreg+status,2+status,0+pclath+cstack]
  3289                           
  3290                           
  3291                           ;mcc_generated_files/eusart.c: 71:     BAUDCON = 0x08;
  3292  0F94  3008               	movlw	8
  3293  0F95  0023               	movlb	3	; select bank3
  3294  0F96  009F               	movwf	31	;volatile
  3295                           
  3296                           ;mcc_generated_files/eusart.c: 74:     RCSTA = 0x90;
  3297  0F97  3090               	movlw	144
  3298  0F98  009D               	movwf	29	;volatile
  3299                           
  3300                           ;mcc_generated_files/eusart.c: 77:     TXSTA = 0x24;
  3301  0F99  3024               	movlw	36
  3302  0F9A  009E               	movwf	30	;volatile
  3303                           
  3304                           ;mcc_generated_files/eusart.c: 80:     SPBRGL = 0x40;
  3305  0F9B  3040               	movlw	64
  3306  0F9C  009B               	movwf	27	;volatile
  3307                           
  3308                           ;mcc_generated_files/eusart.c: 83:     SPBRGH = 0x03;
  3309  0F9D  3003               	movlw	3
  3310  0F9E  009C               	movwf	28	;volatile
  3311  0F9F                     l2659:
  3312                           
  3313                           ;mcc_generated_files/eusart.c: 86:     EUSART_SetFramingErrorHandler(EUSART_DefaultFrami
      +                          ngErrorHandler);
  3314  0F9F  3000               	movlw	0
  3315  0FA0  00F3               	movwf	EUSART_SetFramingErrorHandler@interruptHandler
  3316  0FA1  3000               	movlw	0
  3317  0FA2  00F4               	movwf	EUSART_SetFramingErrorHandler@interruptHandler+1
  3318  0FA3  318E  26C5  318F   	fcall	_EUSART_SetFramingErrorHandler
  3319  0FA6                     l2661:
  3320                           
  3321                           ;mcc_generated_files/eusart.c: 87:     EUSART_SetOverrunErrorHandler(EUSART_DefaultOverr
      +                          unErrorHandler);
  3322  0FA6  3000               	movlw	0
  3323  0FA7  00F3               	movwf	EUSART_SetOverrunErrorHandler@interruptHandler
  3324  0FA8  3000               	movlw	0
  3325  0FA9  00F4               	movwf	EUSART_SetOverrunErrorHandler@interruptHandler+1
  3326  0FAA  318E  26CB  318F   	fcall	_EUSART_SetOverrunErrorHandler
  3327  0FAD                     l2663:
  3328                           
  3329                           ;mcc_generated_files/eusart.c: 88:     EUSART_SetErrorHandler(EUSART_DefaultErrorHandler
      +                          );
  3330  0FAD  3000               	movlw	0
  3331  0FAE  00F3               	movwf	EUSART_SetErrorHandler@interruptHandler
  3332  0FAF  3000               	movlw	0
  3333  0FB0  00F4               	movwf	EUSART_SetErrorHandler@interruptHandler+1
  3334  0FB1  318E  26BF  318F   	fcall	_EUSART_SetErrorHandler
  3335  0FB4                     l2665:
  3336                           
  3337                           ;mcc_generated_files/eusart.c: 90:     eusartRxLastError.status = 0;
  3338  0FB4  01FA               	clrf	_eusartRxLastError	;volatile
  3339  0FB5                     l117:
  3340  0FB5  0008               	return
  3341  0FB6                     __end_of_EUSART_Initialize:
  3342                           
  3343                           	psect	text13
  3344  0ECB                     __ptext13:	
  3345 ;; *************** function _EUSART_SetOverrunErrorHandler *****************
  3346 ;; Defined at:
  3347 ;;		line 161 in file "mcc_generated_files/eusart.c"
  3348 ;; Parameters:    Size  Location     Type
  3349 ;;  interruptHan    2    3[COMMON] PTR FTN()void 
  3350 ;;		 -> EUSART_DefaultOverrunErrorHandler(1), 
  3351 ;; Auto vars:     Size  Location     Type
  3352 ;;		None
  3353 ;; Return value:  Size  Location     Type
  3354 ;;                  1    wreg      void 
  3355 ;; Registers used:
  3356 ;;		wreg
  3357 ;; Tracked objects:
  3358 ;;		On entry : 0/0
  3359 ;;		On exit  : 0/0
  3360 ;;		Unchanged: 0/0
  3361 ;; Data sizes:     COMMON   BANK0   BANK1   BANK2   BANK3   BANK4
  3362 ;;      Params:         2       0       0       0       0       0
  3363 ;;      Locals:         0       0       0       0       0       0
  3364 ;;      Temps:          0       0       0       0       0       0
  3365 ;;      Totals:         2       0       0       0       0       0
  3366 ;;Total ram usage:        2 bytes
  3367 ;; Hardware stack levels used: 1
  3368 ;; Hardware stack levels required when called: 4
  3369 ;; This function calls:
  3370 ;;		Nothing
  3371 ;; This function is called by:
  3372 ;;		_EUSART_Initialize
  3373 ;; This function uses a non-reentrant model
  3374 ;;
  3375                           
  3376                           
  3377                           ;psect for function _EUSART_SetOverrunErrorHandler
  3378  0ECB                     _EUSART_SetOverrunErrorHandler:
  3379  0ECB                     l2613:	
  3380                           ;incstack = 0
  3381                           ; Regs used in _EUSART_SetOverrunErrorHandler: [wreg]
  3382                           
  3383                           
  3384                           ;mcc_generated_files/eusart.c: 162:     EUSART_OverrunErrorHandler = interruptHandler;
  3385  0ECB  0874               	movf	EUSART_SetOverrunErrorHandler@interruptHandler+1,w
  3386  0ECC  0021               	movlb	1	; select bank1
  3387  0ECD  00C2               	movwf	(_EUSART_OverrunErrorHandler+1)^(0+128)
  3388  0ECE  0873               	movf	EUSART_SetOverrunErrorHandler@interruptHandler,w
  3389  0ECF  00C1               	movwf	_EUSART_OverrunErrorHandler^(0+128)
  3390  0ED0                     l159:
  3391  0ED0  0008               	return
  3392  0ED1                     __end_of_EUSART_SetOverrunErrorHandler:
  3393                           
  3394                           	psect	text14
  3395  0EC5                     __ptext14:	
  3396 ;; *************** function _EUSART_SetFramingErrorHandler *****************
  3397 ;; Defined at:
  3398 ;;		line 157 in file "mcc_generated_files/eusart.c"
  3399 ;; Parameters:    Size  Location     Type
  3400 ;;  interruptHan    2    3[COMMON] PTR FTN()void 
  3401 ;;		 -> EUSART_DefaultFramingErrorHandler(1), 
  3402 ;; Auto vars:     Size  Location     Type
  3403 ;;		None
  3404 ;; Return value:  Size  Location     Type
  3405 ;;                  1    wreg      void 
  3406 ;; Registers used:
  3407 ;;		wreg
  3408 ;; Tracked objects:
  3409 ;;		On entry : 0/0
  3410 ;;		On exit  : 0/0
  3411 ;;		Unchanged: 0/0
  3412 ;; Data sizes:     COMMON   BANK0   BANK1   BANK2   BANK3   BANK4
  3413 ;;      Params:         2       0       0       0       0       0
  3414 ;;      Locals:         0       0       0       0       0       0
  3415 ;;      Temps:          0       0       0       0       0       0
  3416 ;;      Totals:         2       0       0       0       0       0
  3417 ;;Total ram usage:        2 bytes
  3418 ;; Hardware stack levels used: 1
  3419 ;; Hardware stack levels required when called: 4
  3420 ;; This function calls:
  3421 ;;		Nothing
  3422 ;; This function is called by:
  3423 ;;		_EUSART_Initialize
  3424 ;; This function uses a non-reentrant model
  3425 ;;
  3426                           
  3427                           
  3428                           ;psect for function _EUSART_SetFramingErrorHandler
  3429  0EC5                     _EUSART_SetFramingErrorHandler:
  3430  0EC5                     l2611:	
  3431                           ;incstack = 0
  3432                           ; Regs used in _EUSART_SetFramingErrorHandler: [wreg]
  3433                           
  3434                           
  3435                           ;mcc_generated_files/eusart.c: 158:     EUSART_FramingErrorHandler = interruptHandler;
  3436  0EC5  0874               	movf	EUSART_SetFramingErrorHandler@interruptHandler+1,w
  3437  0EC6  0021               	movlb	1	; select bank1
  3438  0EC7  00C4               	movwf	(_EUSART_FramingErrorHandler+1)^(0+128)
  3439  0EC8  0873               	movf	EUSART_SetFramingErrorHandler@interruptHandler,w
  3440  0EC9  00C3               	movwf	_EUSART_FramingErrorHandler^(0+128)
  3441  0ECA                     l156:
  3442  0ECA  0008               	return
  3443  0ECB                     __end_of_EUSART_SetFramingErrorHandler:
  3444                           
  3445                           	psect	text15
  3446  0EBF                     __ptext15:	
  3447 ;; *************** function _EUSART_SetErrorHandler *****************
  3448 ;; Defined at:
  3449 ;;		line 165 in file "mcc_generated_files/eusart.c"
  3450 ;; Parameters:    Size  Location     Type
  3451 ;;  interruptHan    2    3[COMMON] PTR FTN()void 
  3452 ;;		 -> EUSART_DefaultErrorHandler(1), 
  3453 ;; Auto vars:     Size  Location     Type
  3454 ;;		None
  3455 ;; Return value:  Size  Location     Type
  3456 ;;                  1    wreg      void 
  3457 ;; Registers used:
  3458 ;;		wreg
  3459 ;; Tracked objects:
  3460 ;;		On entry : 0/0
  3461 ;;		On exit  : 0/0
  3462 ;;		Unchanged: 0/0
  3463 ;; Data sizes:     COMMON   BANK0   BANK1   BANK2   BANK3   BANK4
  3464 ;;      Params:         2       0       0       0       0       0
  3465 ;;      Locals:         0       0       0       0       0       0
  3466 ;;      Temps:          0       0       0       0       0       0
  3467 ;;      Totals:         2       0       0       0       0       0
  3468 ;;Total ram usage:        2 bytes
  3469 ;; Hardware stack levels used: 1
  3470 ;; Hardware stack levels required when called: 4
  3471 ;; This function calls:
  3472 ;;		Nothing
  3473 ;; This function is called by:
  3474 ;;		_EUSART_Initialize
  3475 ;; This function uses a non-reentrant model
  3476 ;;
  3477                           
  3478                           
  3479                           ;psect for function _EUSART_SetErrorHandler
  3480  0EBF                     _EUSART_SetErrorHandler:
  3481  0EBF                     l2615:	
  3482                           ;incstack = 0
  3483                           ; Regs used in _EUSART_SetErrorHandler: [wreg]
  3484                           
  3485                           
  3486                           ;mcc_generated_files/eusart.c: 166:     EUSART_ErrorHandler = interruptHandler;
  3487  0EBF  0874               	movf	EUSART_SetErrorHandler@interruptHandler+1,w
  3488  0EC0  0021               	movlb	1	; select bank1
  3489  0EC1  00C0               	movwf	(_EUSART_ErrorHandler+1)^(0+128)
  3490  0EC2  0873               	movf	EUSART_SetErrorHandler@interruptHandler,w
  3491  0EC3  00BF               	movwf	_EUSART_ErrorHandler^(0+128)
  3492  0EC4                     l162:
  3493  0EC4  0008               	return
  3494  0EC5                     __end_of_EUSART_SetErrorHandler:
  3495                           
  3496                           	psect	text16
  3497  07F0                     __ptext16:	
  3498 ;; *************** function _ADC_Initialize *****************
  3499 ;; Defined at:
  3500 ;;		line 67 in file "mcc_generated_files/adc.c"
  3501 ;; Parameters:    Size  Location     Type
  3502 ;;		None
  3503 ;; Auto vars:     Size  Location     Type
  3504 ;;		None
  3505 ;; Return value:  Size  Location     Type
  3506 ;;                  1    wreg      void 
  3507 ;; Registers used:
  3508 ;;		wreg, status,2, status,0, pclath, cstack
  3509 ;; Tracked objects:
  3510 ;;		On entry : 0/0
  3511 ;;		On exit  : 0/0
  3512 ;;		Unchanged: 0/0
  3513 ;; Data sizes:     COMMON   BANK0   BANK1   BANK2   BANK3   BANK4
  3514 ;;      Params:         0       0       0       0       0       0
  3515 ;;      Locals:         0       0       0       0       0       0
  3516 ;;      Temps:          0       0       0       0       0       0
  3517 ;;      Totals:         0       0       0       0       0       0
  3518 ;;Total ram usage:        0 bytes
  3519 ;; Hardware stack levels used: 1
  3520 ;; Hardware stack levels required when called: 5
  3521 ;; This function calls:
  3522 ;;		_ADC_SetInterruptHandler
  3523 ;; This function is called by:
  3524 ;;		_SYSTEM_Initialize
  3525 ;;		_main
  3526 ;; This function uses a non-reentrant model
  3527 ;;
  3528                           
  3529                           
  3530                           ;psect for function _ADC_Initialize
  3531  07F0                     _ADC_Initialize:
  3532  07F0                     l2667:	
  3533                           ;incstack = 0
  3534                           ; Regs used in _ADC_Initialize: [wreg+status,2+status,0+pclath+cstack]
  3535                           
  3536                           
  3537                           ;mcc_generated_files/adc.c: 72:     ADCON1 = 0b11100000;
  3538  07F0  30E0               	movlw	224
  3539  07F1  0021               	movlb	1	; select bank1
  3540  07F2  009E               	movwf	30	;volatile
  3541  07F3                     l2669:
  3542                           
  3543                           ;mcc_generated_files/adc.c: 75:     ADRESL = 0x00;
  3544  07F3  019B               	clrf	27	;volatile
  3545  07F4                     l2671:
  3546                           
  3547                           ;mcc_generated_files/adc.c: 78:     ADRESH = 0x00;
  3548  07F4  019C               	clrf	28	;volatile
  3549                           
  3550                           ;mcc_generated_files/adc.c: 81:     ADCON0 = 0b00011101;
  3551  07F5  301D               	movlw	29
  3552  07F6  009D               	movwf	29	;volatile
  3553  07F7                     l2673:
  3554                           
  3555                           ;mcc_generated_files/adc.c: 84:     PIE1bits.ADIE = 1;
  3556  07F7  1711               	bsf	17,6	;volatile
  3557  07F8                     l2675:
  3558                           
  3559                           ;mcc_generated_files/adc.c: 87:     ADC_SetInterruptHandler(ADC_DefaultInterruptHandler)
      +                          ;
  3560  07F8  3002               	movlw	low _ADC_DefaultInterruptHandler
  3561  07F9  00F3               	movwf	ADC_SetInterruptHandler@InterruptHandler
  3562  07FA  3000               	movlw	high _ADC_DefaultInterruptHandler
  3563  07FB  00F4               	movwf	ADC_SetInterruptHandler@InterruptHandler+1
  3564  07FC  318E  26B9  3187   	fcall	_ADC_SetInterruptHandler
  3565  07FF                     l187:
  3566  07FF  0008               	return
  3567  0800                     __end_of_ADC_Initialize:
  3568                           
  3569                           	psect	text17
  3570  0EB9                     __ptext17:	
  3571 ;; *************** function _ADC_SetInterruptHandler *****************
  3572 ;; Defined at:
  3573 ;;		line 156 in file "mcc_generated_files/adc.c"
  3574 ;; Parameters:    Size  Location     Type
  3575 ;;  InterruptHan    2    3[COMMON] PTR FTN()void 
  3576 ;;		 -> Interrupcion_ADC(1), ADC_DefaultInterruptHandler(1), 
  3577 ;; Auto vars:     Size  Location     Type
  3578 ;;		None
  3579 ;; Return value:  Size  Location     Type
  3580 ;;                  1    wreg      void 
  3581 ;; Registers used:
  3582 ;;		wreg
  3583 ;; Tracked objects:
  3584 ;;		On entry : 0/0
  3585 ;;		On exit  : 0/0
  3586 ;;		Unchanged: 0/0
  3587 ;; Data sizes:     COMMON   BANK0   BANK1   BANK2   BANK3   BANK4
  3588 ;;      Params:         2       0       0       0       0       0
  3589 ;;      Locals:         0       0       0       0       0       0
  3590 ;;      Temps:          0       0       0       0       0       0
  3591 ;;      Totals:         2       0       0       0       0       0
  3592 ;;Total ram usage:        2 bytes
  3593 ;; Hardware stack levels used: 1
  3594 ;; Hardware stack levels required when called: 4
  3595 ;; This function calls:
  3596 ;;		Nothing
  3597 ;; This function is called by:
  3598 ;;		_ADC_Initialize
  3599 ;;		_main
  3600 ;; This function uses a non-reentrant model
  3601 ;;
  3602                           
  3603                           
  3604                           ;psect for function _ADC_SetInterruptHandler
  3605  0EB9                     _ADC_SetInterruptHandler:
  3606  0EB9                     l2617:	
  3607                           ;incstack = 0
  3608                           ; Regs used in _ADC_SetInterruptHandler: [wreg]
  3609                           
  3610                           
  3611                           ;mcc_generated_files/adc.c: 157:     ADC_InterruptHandler = InterruptHandler;
  3612  0EB9  0874               	movf	ADC_SetInterruptHandler@InterruptHandler+1,w
  3613  0EBA  0021               	movlb	1	; select bank1
  3614  0EBB  00BE               	movwf	(_ADC_InterruptHandler+1)^(0+128)
  3615  0EBC  0873               	movf	ADC_SetInterruptHandler@InterruptHandler,w
  3616  0EBD  00BD               	movwf	_ADC_InterruptHandler^(0+128)
  3617  0EBE                     l215:
  3618  0EBE  0008               	return
  3619  0EBF                     __end_of_ADC_SetInterruptHandler:
  3620                           
  3621                           	psect	text18
  3622  0F2B                     __ptext18:	
  3623 ;; *************** function _EUSART_is_tx_ready *****************
  3624 ;; Defined at:
  3625 ;;		line 94 in file "mcc_generated_files/eusart.c"
  3626 ;; Parameters:    Size  Location     Type
  3627 ;;		None
  3628 ;; Auto vars:     Size  Location     Type
  3629 ;;		None
  3630 ;; Return value:  Size  Location     Type
  3631 ;;                  1    wreg      _Bool 
  3632 ;; Registers used:
  3633 ;;		wreg, status,2
  3634 ;; Tracked objects:
  3635 ;;		On entry : 0/0
  3636 ;;		On exit  : 0/0
  3637 ;;		Unchanged: 0/0
  3638 ;; Data sizes:     COMMON   BANK0   BANK1   BANK2   BANK3   BANK4
  3639 ;;      Params:         0       0       0       0       0       0
  3640 ;;      Locals:         1       0       0       0       0       0
  3641 ;;      Temps:          0       0       0       0       0       0
  3642 ;;      Totals:         1       0       0       0       0       0
  3643 ;;Total ram usage:        1 bytes
  3644 ;; Hardware stack levels used: 1
  3645 ;; Hardware stack levels required when called: 4
  3646 ;; This function calls:
  3647 ;;		Nothing
  3648 ;; This function is called by:
  3649 ;;		_main
  3650 ;; This function uses a non-reentrant model
  3651 ;;
  3652                           
  3653                           
  3654                           ;psect for function _EUSART_is_tx_ready
  3655  0F2B                     _EUSART_is_tx_ready:
  3656  0F2B                     l2971:	
  3657                           ;incstack = 0
  3658                           ; Regs used in _EUSART_is_tx_ready: [wreg+status,2]
  3659                           
  3660                           
  3661                           ;mcc_generated_files/eusart.c: 96:     return (_Bool)(PIR1bits.TXIF && TXSTAbits.TXEN);
  3662  0F2B  01F3               	clrf	_EUSART_is_tx_ready$336
  3663  0F2C                     l2973:
  3664  0F2C  0020               	movlb	0	; select bank0
  3665  0F2D  1E11               	btfss	17,4	;volatile
  3666  0F2E  2F30               	goto	u2601
  3667  0F2F  2F31               	goto	u2600
  3668  0F30                     u2601:
  3669  0F30  2F38               	goto	l2979
  3670  0F31                     u2600:
  3671  0F31                     l2975:
  3672  0F31  0023               	movlb	3	; select bank3
  3673  0F32  1E9E               	btfss	30,5	;volatile
  3674  0F33  2F35               	goto	u2611
  3675  0F34  2F36               	goto	u2610
  3676  0F35                     u2611:
  3677  0F35  2F38               	goto	l2979
  3678  0F36                     u2610:
  3679  0F36                     l2977:
  3680  0F36  01F3               	clrf	_EUSART_is_tx_ready$336
  3681  0F37  0AF3               	incf	_EUSART_is_tx_ready$336,f
  3682  0F38                     l2979:
  3683  0F38  0873               	movf	_EUSART_is_tx_ready$336,w
  3684  0F39                     l122:
  3685  0F39  0008               	return
  3686  0F3A                     __end_of_EUSART_is_tx_ready:
  3687                           
  3688                           	psect	text19
  3689  0EDF                     __ptext19:	
  3690 ;; *************** function _EUSART_Write *****************
  3691 ;; Defined at:
  3692 ;;		line 132 in file "mcc_generated_files/eusart.c"
  3693 ;; Parameters:    Size  Location     Type
  3694 ;;  txData          1    wreg     unsigned char 
  3695 ;; Auto vars:     Size  Location     Type
  3696 ;;  txData          1    3[COMMON] unsigned char 
  3697 ;; Return value:  Size  Location     Type
  3698 ;;                  1    wreg      void 
  3699 ;; Registers used:
  3700 ;;		wreg
  3701 ;; Tracked objects:
  3702 ;;		On entry : 0/0
  3703 ;;		On exit  : 0/0
  3704 ;;		Unchanged: 0/0
  3705 ;; Data sizes:     COMMON   BANK0   BANK1   BANK2   BANK3   BANK4
  3706 ;;      Params:         0       0       0       0       0       0
  3707 ;;      Locals:         1       0       0       0       0       0
  3708 ;;      Temps:          0       0       0       0       0       0
  3709 ;;      Totals:         1       0       0       0       0       0
  3710 ;;Total ram usage:        1 bytes
  3711 ;; Hardware stack levels used: 1
  3712 ;; Hardware stack levels required when called: 4
  3713 ;; This function calls:
  3714 ;;		Nothing
  3715 ;; This function is called by:
  3716 ;;		_main
  3717 ;; This function uses a non-reentrant model
  3718 ;;
  3719                           
  3720                           
  3721                           ;psect for function _EUSART_Write
  3722  0EDF                     _EUSART_Write:
  3723                           
  3724                           ;incstack = 0
  3725                           ; Regs used in _EUSART_Write: [wreg]
  3726                           ;EUSART_Write@txData stored from wreg
  3727  0EDF  00F3               	movwf	EUSART_Write@txData
  3728  0EE0                     l2983:
  3729  0EE0                     l141:	
  3730                           ;mcc_generated_files/eusart.c: 135:     {;mcc_generated_files/eusart.c: 136:     }
  3731                           
  3732                           
  3733                           ;mcc_generated_files/eusart.c: 134:     while(0 == PIR1bits.TXIF)
  3734  0EE0  0020               	movlb	0	; select bank0
  3735  0EE1  1E11               	btfss	17,4	;volatile
  3736  0EE2  2EE4               	goto	u2621
  3737  0EE3  2EE5               	goto	u2620
  3738  0EE4                     u2621:
  3739  0EE4  2EE0               	goto	l141
  3740  0EE5                     u2620:
  3741  0EE5                     l2985:
  3742                           
  3743                           ;mcc_generated_files/eusart.c: 138:     TXREG = txData;
  3744  0EE5  0873               	movf	EUSART_Write@txData,w
  3745  0EE6  0023               	movlb	3	; select bank3
  3746  0EE7  009A               	movwf	26	;volatile
  3747  0EE8                     l144:
  3748  0EE8  0008               	return
  3749  0EE9                     __end_of_EUSART_Write:
  3750                           
  3751                           	psect	text20
  3752  0296                     __ptext20:	
  3753 ;; *************** function _Ds_Procese_displays *****************
  3754 ;; Defined at:
  3755 ;;		line 193 in file "displays.c"
  3756 ;; Parameters:    Size  Location     Type
  3757 ;;  dsp             1    wreg     PTR struct Ds_Display
  3758 ;;		 -> main@seven_seg(8), 
  3759 ;; Auto vars:     Size  Location     Type
  3760 ;;  dsp             1    8[COMMON] PTR struct Ds_Display
  3761 ;;		 -> main@seven_seg(8), 
  3762 ;; Return value:  Size  Location     Type
  3763 ;;                  1    wreg      void 
  3764 ;; Registers used:
  3765 ;;		wreg, fsr0l, fsr0h, fsr1l, fsr1h, status,2, status,0, pclath, cstack
  3766 ;; Tracked objects:
  3767 ;;		On entry : 0/0
  3768 ;;		On exit  : 0/0
  3769 ;;		Unchanged: 0/0
  3770 ;; Data sizes:     COMMON   BANK0   BANK1   BANK2   BANK3   BANK4
  3771 ;;      Params:         0       0       0       0       0       0
  3772 ;;      Locals:         1       0       0       0       0       0
  3773 ;;      Temps:          2       0       0       0       0       0
  3774 ;;      Totals:         3       0       0       0       0       0
  3775 ;;Total ram usage:        3 bytes
  3776 ;; Hardware stack levels used: 1
  3777 ;; Hardware stack levels required when called: 5
  3778 ;; This function calls:
  3779 ;;		_Ds_BCD
  3780 ;;		_Ds_Encienda_Disp
  3781 ;; This function is called by:
  3782 ;;		_main
  3783 ;; This function uses a non-reentrant model
  3784 ;;
  3785                           
  3786                           
  3787                           ;psect for function _Ds_Procese_displays
  3788  0296                     _Ds_Procese_displays:
  3789                           
  3790                           ;incstack = 0
  3791                           ; Regs used in _Ds_Procese_displays: [wreg-fsr1h+status,2+status,0+pclath+cstack]
  3792                           ;Ds_Procese_displays@dsp stored from wreg
  3793  0296  00F8               	movwf	Ds_Procese_displays@dsp
  3794  0297                     l3029:
  3795                           
  3796                           ;displays.c: 195:     switch ( dsp->estados ){
  3797  0297  2BA0               	goto	l3089
  3798  0298                     l3031:
  3799                           
  3800                           ;displays.c: 198:             --(dsp->tempE);
  3801  0298  0878               	movf	Ds_Procese_displays@dsp,w
  3802  0299  3E06               	addlw	6
  3803  029A  0086               	movwf	6
  3804  029B  0187               	clrf	7
  3805  029C  3001               	movlw	1
  3806  029D  0281               	subwf	1,f
  3807                           
  3808                           ;displays.c: 199:             if(!(dsp->tempE)){
  3809  029E  0878               	movf	Ds_Procese_displays@dsp,w
  3810  029F  3E06               	addlw	6
  3811  02A0  0086               	movwf	6
  3812  02A1  0187               	clrf	7
  3813  02A2  0801               	movf	1,w
  3814  02A3  1D03               	btfss	3,2
  3815  02A4  2AA6               	goto	u2661
  3816  02A5  2AA7               	goto	u2660
  3817  02A6                     u2661:
  3818  02A6  2ABA               	goto	l3037
  3819  02A7                     u2660:
  3820  02A7                     l3033:
  3821                           
  3822                           ;displays.c: 200:                 dsp->estados =2;
  3823  02A7  3002               	movlw	2
  3824  02A8  00F6               	movwf	??_Ds_Procese_displays
  3825  02A9  0878               	movf	Ds_Procese_displays@dsp,w
  3826  02AA  0086               	movwf	6
  3827  02AB  0187               	clrf	7
  3828  02AC  0876               	movf	??_Ds_Procese_displays,w
  3829  02AD  0081               	movwf	1
  3830  02AE                     l3035:
  3831                           
  3832                           ;displays.c: 201:                 dsp->tempA=dsp->tiempoApagado;
  3833  02AE  0878               	movf	Ds_Procese_displays@dsp,w
  3834  02AF  3E05               	addlw	5
  3835  02B0  0086               	movwf	6
  3836  02B1  0187               	clrf	7
  3837  02B2  0801               	movf	1,w
  3838  02B3  00F6               	movwf	??_Ds_Procese_displays
  3839  02B4  0878               	movf	Ds_Procese_displays@dsp,w
  3840  02B5  3E07               	addlw	7
  3841  02B6  0086               	movwf	6
  3842  02B7  0187               	clrf	7
  3843  02B8  0876               	movf	??_Ds_Procese_displays,w
  3844  02B9  0081               	movwf	1
  3845  02BA                     l3037:
  3846                           
  3847                           ;displays.c: 204:             Ds_Encienda_Disp(1);
  3848  02BA  3001               	movlw	1
  3849  02BB  318F  27DA  3182   	fcall	_Ds_Encienda_Disp
  3850  02BE                     l3039:
  3851                           
  3852                           ;displays.c: 205:             Ds_BCD(dsp->D1);
  3853  02BE  0A78               	incf	Ds_Procese_displays@dsp,w
  3854  02BF  0086               	movwf	6
  3855  02C0  0187               	clrf	7
  3856  02C1  0801               	movf	1,w
  3857  02C2  3185  253F  3182   	fcall	_Ds_BCD
  3858                           
  3859                           ;displays.c: 207:         break;
  3860  02C5  2BBF               	goto	l522
  3861  02C6                     l3041:
  3862                           
  3863                           ;displays.c: 210:             --(dsp->tempA);
  3864  02C6  0878               	movf	Ds_Procese_displays@dsp,w
  3865  02C7  3E07               	addlw	7
  3866  02C8  0086               	movwf	6
  3867  02C9  0187               	clrf	7
  3868  02CA  3001               	movlw	1
  3869  02CB  0281               	subwf	1,f
  3870                           
  3871                           ;displays.c: 211:             if(!(dsp->tempA)){
  3872  02CC  0878               	movf	Ds_Procese_displays@dsp,w
  3873  02CD  3E07               	addlw	7
  3874  02CE  0086               	movwf	6
  3875  02CF  0187               	clrf	7
  3876  02D0  0801               	movf	1,w
  3877  02D1  1D03               	btfss	3,2
  3878  02D2  2AD4               	goto	u2671
  3879  02D3  2AD5               	goto	u2670
  3880  02D4                     u2671:
  3881  02D4  2AE8               	goto	l3047
  3882  02D5                     u2670:
  3883  02D5                     l3043:
  3884                           
  3885                           ;displays.c: 212:                 dsp->estados =3;
  3886  02D5  3003               	movlw	3
  3887  02D6  00F6               	movwf	??_Ds_Procese_displays
  3888  02D7  0878               	movf	Ds_Procese_displays@dsp,w
  3889  02D8  0086               	movwf	6
  3890  02D9  0187               	clrf	7
  3891  02DA  0876               	movf	??_Ds_Procese_displays,w
  3892  02DB  0081               	movwf	1
  3893  02DC                     l3045:
  3894                           
  3895                           ;displays.c: 213:                 dsp->tempE=dsp->tiempoEncendido;
  3896  02DC  0878               	movf	Ds_Procese_displays@dsp,w
  3897  02DD  3E04               	addlw	4
  3898  02DE  0086               	movwf	6
  3899  02DF  0187               	clrf	7
  3900  02E0  0801               	movf	1,w
  3901  02E1  00F6               	movwf	??_Ds_Procese_displays
  3902  02E2  0878               	movf	Ds_Procese_displays@dsp,w
  3903  02E3  3E06               	addlw	6
  3904  02E4  0086               	movwf	6
  3905  02E5  0187               	clrf	7
  3906  02E6  0876               	movf	??_Ds_Procese_displays,w
  3907  02E7  0081               	movwf	1
  3908  02E8                     l3047:
  3909                           
  3910                           ;displays.c: 216:             Ds_Encienda_Disp(0);
  3911  02E8  3000               	movlw	0
  3912  02E9  318F  27DA  3182   	fcall	_Ds_Encienda_Disp
  3913                           
  3914                           ;displays.c: 217:         break;
  3915  02EC  2BBF               	goto	l522
  3916  02ED                     l3049:
  3917                           
  3918                           ;displays.c: 220:             --(dsp->tempE);
  3919  02ED  0878               	movf	Ds_Procese_displays@dsp,w
  3920  02EE  3E06               	addlw	6
  3921  02EF  0086               	movwf	6
  3922  02F0  0187               	clrf	7
  3923  02F1  3001               	movlw	1
  3924  02F2  0281               	subwf	1,f
  3925                           
  3926                           ;displays.c: 221:             if(!(dsp->tempE)){
  3927  02F3  0878               	movf	Ds_Procese_displays@dsp,w
  3928  02F4  3E06               	addlw	6
  3929  02F5  0086               	movwf	6
  3930  02F6  0187               	clrf	7
  3931  02F7  0801               	movf	1,w
  3932  02F8  1D03               	btfss	3,2
  3933  02F9  2AFB               	goto	u2681
  3934  02FA  2AFC               	goto	u2680
  3935  02FB                     u2681:
  3936  02FB  2B0F               	goto	l3055
  3937  02FC                     u2680:
  3938  02FC                     l3051:
  3939                           
  3940                           ;displays.c: 222:                 dsp->estados =4;
  3941  02FC  3004               	movlw	4
  3942  02FD  00F6               	movwf	??_Ds_Procese_displays
  3943  02FE  0878               	movf	Ds_Procese_displays@dsp,w
  3944  02FF  0086               	movwf	6
  3945  0300  0187               	clrf	7
  3946  0301  0876               	movf	??_Ds_Procese_displays,w
  3947  0302  0081               	movwf	1
  3948  0303                     l3053:
  3949                           
  3950                           ;displays.c: 223:                 dsp->tempA=dsp->tiempoApagado;
  3951  0303  0878               	movf	Ds_Procese_displays@dsp,w
  3952  0304  3E05               	addlw	5
  3953  0305  0086               	movwf	6
  3954  0306  0187               	clrf	7
  3955  0307  0801               	movf	1,w
  3956  0308  00F6               	movwf	??_Ds_Procese_displays
  3957  0309  0878               	movf	Ds_Procese_displays@dsp,w
  3958  030A  3E07               	addlw	7
  3959  030B  0086               	movwf	6
  3960  030C  0187               	clrf	7
  3961  030D  0876               	movf	??_Ds_Procese_displays,w
  3962  030E  0081               	movwf	1
  3963  030F                     l3055:
  3964                           
  3965                           ;displays.c: 226:             Ds_Encienda_Disp(2);
  3966  030F  3002               	movlw	2
  3967  0310  318F  27DA  3182   	fcall	_Ds_Encienda_Disp
  3968  0313                     l3057:
  3969                           
  3970                           ;displays.c: 227:             Ds_BCD(dsp->D2);
  3971  0313  0878               	movf	Ds_Procese_displays@dsp,w
  3972  0314  3E02               	addlw	2
  3973  0315  0086               	movwf	6
  3974  0316  0187               	clrf	7
  3975  0317  0801               	movf	1,w
  3976  0318  3185  253F  3182   	fcall	_Ds_BCD
  3977                           
  3978                           ;displays.c: 228:         break;
  3979  031B  2BBF               	goto	l522
  3980  031C                     l3059:
  3981                           
  3982                           ;displays.c: 231:             --(dsp->tempA);
  3983  031C  0878               	movf	Ds_Procese_displays@dsp,w
  3984  031D  3E07               	addlw	7
  3985  031E  0086               	movwf	6
  3986  031F  0187               	clrf	7
  3987  0320  3001               	movlw	1
  3988  0321  0281               	subwf	1,f
  3989                           
  3990                           ;displays.c: 232:             if(!(dsp->tempA)){
  3991  0322  0878               	movf	Ds_Procese_displays@dsp,w
  3992  0323  3E07               	addlw	7
  3993  0324  0086               	movwf	6
  3994  0325  0187               	clrf	7
  3995  0326  0801               	movf	1,w
  3996  0327  1D03               	btfss	3,2
  3997  0328  2B2A               	goto	u2691
  3998  0329  2B2B               	goto	u2690
  3999  032A                     u2691:
  4000  032A  2B3E               	goto	l3065
  4001  032B                     u2690:
  4002  032B                     l3061:
  4003                           
  4004                           ;displays.c: 233:                 dsp->estados =5;
  4005  032B  3005               	movlw	5
  4006  032C  00F6               	movwf	??_Ds_Procese_displays
  4007  032D  0878               	movf	Ds_Procese_displays@dsp,w
  4008  032E  0086               	movwf	6
  4009  032F  0187               	clrf	7
  4010  0330  0876               	movf	??_Ds_Procese_displays,w
  4011  0331  0081               	movwf	1
  4012  0332                     l3063:
  4013                           
  4014                           ;displays.c: 234:                 dsp->tempE=dsp->tiempoEncendido;
  4015  0332  0878               	movf	Ds_Procese_displays@dsp,w
  4016  0333  3E04               	addlw	4
  4017  0334  0086               	movwf	6
  4018  0335  0187               	clrf	7
  4019  0336  0801               	movf	1,w
  4020  0337  00F6               	movwf	??_Ds_Procese_displays
  4021  0338  0878               	movf	Ds_Procese_displays@dsp,w
  4022  0339  3E06               	addlw	6
  4023  033A  0086               	movwf	6
  4024  033B  0187               	clrf	7
  4025  033C  0876               	movf	??_Ds_Procese_displays,w
  4026  033D  0081               	movwf	1
  4027  033E                     l3065:
  4028                           
  4029                           ;displays.c: 237:             Ds_Encienda_Disp(0);
  4030  033E  3000               	movlw	0
  4031  033F  318F  27DA  3182   	fcall	_Ds_Encienda_Disp
  4032                           
  4033                           ;displays.c: 238:         break;
  4034  0342  2BBF               	goto	l522
  4035  0343                     l3067:
  4036                           
  4037                           ;displays.c: 241:             --(dsp->tempE);
  4038  0343  0878               	movf	Ds_Procese_displays@dsp,w
  4039  0344  3E06               	addlw	6
  4040  0345  0086               	movwf	6
  4041  0346  0187               	clrf	7
  4042  0347  3001               	movlw	1
  4043  0348  0281               	subwf	1,f
  4044                           
  4045                           ;displays.c: 242:             if(!(dsp->tempE)){
  4046  0349  0878               	movf	Ds_Procese_displays@dsp,w
  4047  034A  3E06               	addlw	6
  4048  034B  0086               	movwf	6
  4049  034C  0187               	clrf	7
  4050  034D  0801               	movf	1,w
  4051  034E  1D03               	btfss	3,2
  4052  034F  2B51               	goto	u2701
  4053  0350  2B52               	goto	u2700
  4054  0351                     u2701:
  4055  0351  2B65               	goto	l3073
  4056  0352                     u2700:
  4057  0352                     l3069:
  4058                           
  4059                           ;displays.c: 243:                 dsp->estados =6;
  4060  0352  3006               	movlw	6
  4061  0353  00F6               	movwf	??_Ds_Procese_displays
  4062  0354  0878               	movf	Ds_Procese_displays@dsp,w
  4063  0355  0086               	movwf	6
  4064  0356  0187               	clrf	7
  4065  0357  0876               	movf	??_Ds_Procese_displays,w
  4066  0358  0081               	movwf	1
  4067  0359                     l3071:
  4068                           
  4069                           ;displays.c: 244:                 dsp->tempA=dsp->tiempoApagado;
  4070  0359  0878               	movf	Ds_Procese_displays@dsp,w
  4071  035A  3E05               	addlw	5
  4072  035B  0086               	movwf	6
  4073  035C  0187               	clrf	7
  4074  035D  0801               	movf	1,w
  4075  035E  00F6               	movwf	??_Ds_Procese_displays
  4076  035F  0878               	movf	Ds_Procese_displays@dsp,w
  4077  0360  3E07               	addlw	7
  4078  0361  0086               	movwf	6
  4079  0362  0187               	clrf	7
  4080  0363  0876               	movf	??_Ds_Procese_displays,w
  4081  0364  0081               	movwf	1
  4082  0365                     l3073:
  4083                           
  4084                           ;displays.c: 247:             Ds_Encienda_Disp(3);
  4085  0365  3003               	movlw	3
  4086  0366  318F  27DA  3182   	fcall	_Ds_Encienda_Disp
  4087  0369                     l3075:
  4088                           
  4089                           ;displays.c: 248:             Ds_BCD(dsp->D3);
  4090  0369  0878               	movf	Ds_Procese_displays@dsp,w
  4091  036A  3E03               	addlw	3
  4092  036B  0086               	movwf	6
  4093  036C  0187               	clrf	7
  4094  036D  0801               	movf	1,w
  4095  036E  3185  253F  3182   	fcall	_Ds_BCD
  4096                           
  4097                           ;displays.c: 249:         break;
  4098  0371  2BBF               	goto	l522
  4099  0372                     l3077:
  4100                           
  4101                           ;displays.c: 252:             --(dsp->tempA);
  4102  0372  0878               	movf	Ds_Procese_displays@dsp,w
  4103  0373  3E07               	addlw	7
  4104  0374  0086               	movwf	6
  4105  0375  0187               	clrf	7
  4106  0376  3001               	movlw	1
  4107  0377  0281               	subwf	1,f
  4108                           
  4109                           ;displays.c: 253:             if(!(dsp->tempA)){
  4110  0378  0878               	movf	Ds_Procese_displays@dsp,w
  4111  0379  3E07               	addlw	7
  4112  037A  0086               	movwf	6
  4113  037B  0187               	clrf	7
  4114  037C  0801               	movf	1,w
  4115  037D  1D03               	btfss	3,2
  4116  037E  2B80               	goto	u2711
  4117  037F  2B81               	goto	u2710
  4118  0380                     u2711:
  4119  0380  2B92               	goto	l3083
  4120  0381                     u2710:
  4121  0381                     l3079:
  4122                           
  4123                           ;displays.c: 254:                 dsp->estados = 1;
  4124  0381  0878               	movf	Ds_Procese_displays@dsp,w
  4125  0382  0086               	movwf	6
  4126  0383  0187               	clrf	7
  4127  0384  0181               	clrf	1
  4128  0385  0A81               	incf	1,f
  4129  0386                     l3081:
  4130                           
  4131                           ;displays.c: 255:                 dsp->tempE=dsp->tiempoEncendido;
  4132  0386  0878               	movf	Ds_Procese_displays@dsp,w
  4133  0387  3E04               	addlw	4
  4134  0388  0086               	movwf	6
  4135  0389  0187               	clrf	7
  4136  038A  0801               	movf	1,w
  4137  038B  00F6               	movwf	??_Ds_Procese_displays
  4138  038C  0878               	movf	Ds_Procese_displays@dsp,w
  4139  038D  3E06               	addlw	6
  4140  038E  0086               	movwf	6
  4141  038F  0187               	clrf	7
  4142  0390  0876               	movf	??_Ds_Procese_displays,w
  4143  0391  0081               	movwf	1
  4144  0392                     l3083:
  4145                           
  4146                           ;displays.c: 258:             Ds_Encienda_Disp(0);
  4147  0392  3000               	movlw	0
  4148  0393  318F  27DA  3182   	fcall	_Ds_Encienda_Disp
  4149                           
  4150                           ;displays.c: 259:         break;
  4151  0396  2BBF               	goto	l522
  4152  0397                     l3085:
  4153                           
  4154                           ;displays.c: 264:                 Ds_BCD(10);
  4155  0397  300A               	movlw	10
  4156  0398  3185  253F  3182   	fcall	_Ds_BCD
  4157  039B                     l3087:
  4158                           
  4159                           ;displays.c: 265:        Ds_Encienda_Disp(2);
  4160  039B  3002               	movlw	2
  4161  039C  318F  27DA  3182   	fcall	_Ds_Encienda_Disp
  4162  039F  2B97               	goto	l3085
  4163  03A0                     l3089:
  4164  03A0  0878               	movf	Ds_Procese_displays@dsp,w
  4165  03A1  0086               	movwf	6
  4166  03A2  0187               	clrf	7
  4167  03A3  0801               	movf	1,w
  4168  03A4  00F6               	movwf	??_Ds_Procese_displays
  4169  03A5  01F7               	clrf	??_Ds_Procese_displays+1
  4170                           
  4171                           ; Switch on 2 bytes has been partitioned into a top level switch of size 1, and 1 sub-sw
      +                          itches
  4172                           ; Switch size 1, requested type "simple"
  4173                           ; Number of cases is 1, Range of values is 0 to 0
  4174                           ; switch strategies available:
  4175                           ; Name         Instructions Cycles
  4176                           ; simple_byte            4     3 (average)
  4177                           ; direct_byte            8     6 (fixed)
  4178                           ; jumptable            260     6 (fixed)
  4179                           ;	Chosen strategy is simple_byte
  4180  03A6  0877               	movf	??_Ds_Procese_displays+1,w
  4181  03A7  3A00               	xorlw	0	; case 0
  4182  03A8  1903               	skipnz
  4183  03A9  2BAB               	goto	l3239
  4184  03AA  2B97               	goto	l3085
  4185  03AB                     l3239:
  4186                           
  4187                           ; Switch size 1, requested type "simple"
  4188                           ; Number of cases is 6, Range of values is 1 to 6
  4189                           ; switch strategies available:
  4190                           ; Name         Instructions Cycles
  4191                           ; simple_byte           19    10 (average)
  4192                           ; direct_byte           21     9 (fixed)
  4193                           ; jumptable            263     9 (fixed)
  4194                           ;	Chosen strategy is simple_byte
  4195  03AB  0876               	movf	??_Ds_Procese_displays,w
  4196  03AC  3A01               	xorlw	1	; case 1
  4197  03AD  1903               	skipnz
  4198  03AE  2A98               	goto	l3031
  4199  03AF  3A03               	xorlw	3	; case 2
  4200  03B0  1903               	skipnz
  4201  03B1  2AC6               	goto	l3041
  4202  03B2  3A01               	xorlw	1	; case 3
  4203  03B3  1903               	skipnz
  4204  03B4  2AED               	goto	l3049
  4205  03B5  3A07               	xorlw	7	; case 4
  4206  03B6  1903               	skipnz
  4207  03B7  2B1C               	goto	l3059
  4208  03B8  3A01               	xorlw	1	; case 5
  4209  03B9  1903               	skipnz
  4210  03BA  2B43               	goto	l3067
  4211  03BB  3A03               	xorlw	3	; case 6
  4212  03BC  1903               	skipnz
  4213  03BD  2B72               	goto	l3077
  4214  03BE  2B97               	goto	l3085
  4215  03BF                     l522:
  4216  03BF  0008               	return
  4217  03C0                     __end_of_Ds_Procese_displays:
  4218                           
  4219                           	psect	text21
  4220  0FDA                     __ptext21:	
  4221 ;; *************** function _Ds_Encienda_Disp *****************
  4222 ;; Defined at:
  4223 ;;		line 270 in file "displays.c"
  4224 ;; Parameters:    Size  Location     Type
  4225 ;;  dispNum         1    wreg     unsigned char 
  4226 ;; Auto vars:     Size  Location     Type
  4227 ;;  dispNum         1    3[COMMON] unsigned char 
  4228 ;; Return value:  Size  Location     Type
  4229 ;;                  1    wreg      void 
  4230 ;; Registers used:
  4231 ;;		wreg, status,2, status,0
  4232 ;; Tracked objects:
  4233 ;;		On entry : 0/0
  4234 ;;		On exit  : 0/0
  4235 ;;		Unchanged: 0/0
  4236 ;; Data sizes:     COMMON   BANK0   BANK1   BANK2   BANK3   BANK4
  4237 ;;      Params:         0       0       0       0       0       0
  4238 ;;      Locals:         1       0       0       0       0       0
  4239 ;;      Temps:          0       0       0       0       0       0
  4240 ;;      Totals:         1       0       0       0       0       0
  4241 ;;Total ram usage:        1 bytes
  4242 ;; Hardware stack levels used: 1
  4243 ;; Hardware stack levels required when called: 4
  4244 ;; This function calls:
  4245 ;;		Nothing
  4246 ;; This function is called by:
  4247 ;;		_Ds_Procese_displays
  4248 ;; This function uses a non-reentrant model
  4249 ;;
  4250                           
  4251                           
  4252                           ;psect for function _Ds_Encienda_Disp
  4253  0FDA                     _Ds_Encienda_Disp:
  4254                           
  4255                           ;incstack = 0
  4256                           ; Regs used in _Ds_Encienda_Disp: [wreg+status,2+status,0]
  4257                           ;Ds_Encienda_Disp@dispNum stored from wreg
  4258  0FDA  00F3               	movwf	Ds_Encienda_Disp@dispNum
  4259  0FDB                     l2695:
  4260                           
  4261                           ;displays.c: 271:     if(dispNum == 1){
  4262  0FDB  0373               	decf	Ds_Encienda_Disp@dispNum,w
  4263  0FDC  1D03               	btfss	3,2
  4264  0FDD  2FDF               	goto	u1941
  4265  0FDE  2FE0               	goto	u1940
  4266  0FDF                     u1941:
  4267  0FDF  2FE5               	goto	l2697
  4268  0FE0                     u1940:
  4269  0FE0                     l526:	
  4270                           ;displays.c: 272:         do { LATBbits.LATB0 = 1; } while(0);
  4271                           
  4272  0FE0  0022               	movlb	2	; select bank2
  4273  0FE1  140D               	bsf	13,0	;volatile
  4274  0FE2                     l528:	
  4275                           ;displays.c: 273:         do { LATBbits.LATB4 = 0; } while(0);
  4276                           
  4277  0FE2  120D               	bcf	13,4	;volatile
  4278  0FE3                     l530:	
  4279                           ;displays.c: 274:         do { LATBbits.LATB3 = 0; } while(0);
  4280                           
  4281  0FE3  118D               	bcf	13,3	;volatile
  4282  0FE4  2FFF               	goto	l555
  4283  0FE5                     l2697:
  4284  0FE5  3002               	movlw	2
  4285  0FE6  0673               	xorwf	Ds_Encienda_Disp@dispNum,w
  4286  0FE7  1D03               	btfss	3,2
  4287  0FE8  2FEA               	goto	u1951
  4288  0FE9  2FEB               	goto	u1950
  4289  0FEA                     u1951:
  4290  0FEA  2FF0               	goto	l2699
  4291  0FEB                     u1950:
  4292  0FEB                     l534:	
  4293                           ;displays.c: 276:         do { LATBbits.LATB0 = 0; } while(0);
  4294                           
  4295  0FEB  0022               	movlb	2	; select bank2
  4296  0FEC  100D               	bcf	13,0	;volatile
  4297  0FED                     l536:	
  4298                           ;displays.c: 277:         do { LATBbits.LATB3 = 1; } while(0);
  4299                           
  4300  0FED  158D               	bsf	13,3	;volatile
  4301  0FEE                     l538:	
  4302                           ;displays.c: 278:         do { LATBbits.LATB4 = 0; } while(0);
  4303                           
  4304  0FEE  120D               	bcf	13,4	;volatile
  4305  0FEF  2FFF               	goto	l555
  4306  0FF0                     l2699:
  4307  0FF0  3003               	movlw	3
  4308  0FF1  0673               	xorwf	Ds_Encienda_Disp@dispNum,w
  4309  0FF2  1D03               	btfss	3,2
  4310  0FF3  2FF5               	goto	u1961
  4311  0FF4  2FF6               	goto	u1960
  4312  0FF5                     u1961:
  4313  0FF5  2FFB               	goto	l549
  4314  0FF6                     u1960:
  4315  0FF6                     l542:	
  4316                           ;displays.c: 280:         do { LATBbits.LATB0 = 0; } while(0);
  4317                           
  4318  0FF6  0022               	movlb	2	; select bank2
  4319  0FF7  100D               	bcf	13,0	;volatile
  4320  0FF8                     l544:	
  4321                           ;displays.c: 281:         do { LATBbits.LATB3 = 0; } while(0);
  4322                           
  4323  0FF8  118D               	bcf	13,3	;volatile
  4324  0FF9                     l546:	
  4325                           ;displays.c: 282:         do { LATBbits.LATB4 = 1; } while(0);
  4326                           
  4327  0FF9  160D               	bsf	13,4	;volatile
  4328  0FFA  2FFF               	goto	l555
  4329  0FFB                     l549:	
  4330                           ;displays.c: 284:         do { LATBbits.LATB0 = 0; } while(0);
  4331                           
  4332  0FFB  0022               	movlb	2	; select bank2
  4333  0FFC  100D               	bcf	13,0	;volatile
  4334  0FFD                     l551:	
  4335                           ;displays.c: 285:         do { LATBbits.LATB4 = 0; } while(0);
  4336                           
  4337  0FFD  120D               	bcf	13,4	;volatile
  4338  0FFE                     l553:	
  4339                           ;displays.c: 286:         do { LATBbits.LATB3 = 0; } while(0);
  4340                           
  4341  0FFE  118D               	bcf	13,3	;volatile
  4342  0FFF                     l555:
  4343  0FFF  0008               	return
  4344  1000                     __end_of_Ds_Encienda_Disp:
  4345                           
  4346                           	psect	text22
  4347  053F                     __ptext22:	
  4348 ;; *************** function _Ds_BCD *****************
  4349 ;; Defined at:
  4350 ;;		line 22 in file "displays.c"
  4351 ;; Parameters:    Size  Location     Type
  4352 ;;  segmento        1    wreg     unsigned char 
  4353 ;; Auto vars:     Size  Location     Type
  4354 ;;  segmento        1    5[COMMON] unsigned char 
  4355 ;; Return value:  Size  Location     Type
  4356 ;;                  1    wreg      void 
  4357 ;; Registers used:
  4358 ;;		wreg, fsr0l, fsr0h, status,2, status,0
  4359 ;; Tracked objects:
  4360 ;;		On entry : 0/0
  4361 ;;		On exit  : 0/0
  4362 ;;		Unchanged: 0/0
  4363 ;; Data sizes:     COMMON   BANK0   BANK1   BANK2   BANK3   BANK4
  4364 ;;      Params:         0       0       0       0       0       0
  4365 ;;      Locals:         1       0       0       0       0       0
  4366 ;;      Temps:          2       0       0       0       0       0
  4367 ;;      Totals:         3       0       0       0       0       0
  4368 ;;Total ram usage:        3 bytes
  4369 ;; Hardware stack levels used: 1
  4370 ;; Hardware stack levels required when called: 4
  4371 ;; This function calls:
  4372 ;;		Nothing
  4373 ;; This function is called by:
  4374 ;;		_Ds_Procese_displays
  4375 ;; This function uses a non-reentrant model
  4376 ;;
  4377                           
  4378                           
  4379                           ;psect for function _Ds_BCD
  4380  053F                     _Ds_BCD:
  4381                           
  4382                           ;incstack = 0
  4383                           ; Regs used in _Ds_BCD: [wreg-fsr0h+status,2+status,0]
  4384                           ;Ds_BCD@segmento stored from wreg
  4385  053F  00F5               	movwf	Ds_BCD@segmento
  4386  0540                     l2685:
  4387                           
  4388                           ;displays.c: 24:     switch (segmento){
  4389  0540  2DA4               	goto	l2689
  4390  0541                     l330:	
  4391                           ;displays.c: 28:             do { LATAbits.LATA0 = 1; } while(0);
  4392                           
  4393  0541  0022               	movlb	2	; select bank2
  4394  0542  140C               	bsf	12,0	;volatile
  4395  0543                     l332:	
  4396                           ;displays.c: 29:             do { LATAbits.LATA1 = 1; } while(0);
  4397                           
  4398  0543  148C               	bsf	12,1	;volatile
  4399  0544                     l334:	
  4400                           ;displays.c: 30:             do { LATAbits.LATA2 = 1; } while(0);
  4401                           
  4402  0544  150C               	bsf	12,2	;volatile
  4403  0545                     l336:	
  4404                           ;displays.c: 31:             do { LATAbits.LATA3 = 1; } while(0);
  4405                           
  4406  0545  158C               	bsf	12,3	;volatile
  4407  0546                     l338:	
  4408                           ;displays.c: 32:             do { LATAbits.LATA4 = 1; } while(0);
  4409                           
  4410  0546  160C               	bsf	12,4	;volatile
  4411  0547                     l340:	
  4412                           ;displays.c: 33:             do { LATAbits.LATA7 = 1; } while(0);
  4413                           
  4414  0547  178C               	bsf	12,7	;volatile
  4415  0548                     l342:	
  4416                           ;displays.c: 34:             do { LATAbits.LATA6 = 0; } while(0);
  4417                           
  4418  0548  130C               	bcf	12,6	;volatile
  4419  0549  2DCF               	goto	l495
  4420  054A                     l346:	
  4421                           ;displays.c: 41:             do { LATAbits.LATA0 = 0; } while(0);
  4422                           
  4423  054A  0022               	movlb	2	; select bank2
  4424  054B  100C               	bcf	12,0	;volatile
  4425  054C                     l348:	
  4426                           ;displays.c: 42:             do { LATAbits.LATA1 = 1; } while(0);
  4427                           
  4428  054C  148C               	bsf	12,1	;volatile
  4429  054D                     l350:	
  4430                           ;displays.c: 43:             do { LATAbits.LATA2 = 1; } while(0);
  4431                           
  4432  054D  150C               	bsf	12,2	;volatile
  4433  054E                     l352:	
  4434                           ;displays.c: 44:             do { LATAbits.LATA3 = 0; } while(0);
  4435                           
  4436  054E  118C               	bcf	12,3	;volatile
  4437  054F                     l354:	
  4438                           ;displays.c: 45:             do { LATAbits.LATA4 = 0; } while(0);
  4439                           
  4440  054F  120C               	bcf	12,4	;volatile
  4441  0550                     l356:	
  4442                           ;displays.c: 46:             do { LATAbits.LATA7 = 0; } while(0);
  4443                           
  4444  0550  138C               	bcf	12,7	;volatile
  4445  0551                     l358:	
  4446                           ;displays.c: 47:             do { LATAbits.LATA6 = 0; } while(0);
  4447                           
  4448  0551  130C               	bcf	12,6	;volatile
  4449  0552  2DCF               	goto	l495
  4450  0553                     l361:	
  4451                           ;displays.c: 55:             do { LATAbits.LATA0 = 1; } while(0);
  4452                           
  4453  0553  0022               	movlb	2	; select bank2
  4454  0554  140C               	bsf	12,0	;volatile
  4455  0555                     l363:	
  4456                           ;displays.c: 56:             do { LATAbits.LATA1 = 1; } while(0);
  4457                           
  4458  0555  148C               	bsf	12,1	;volatile
  4459  0556                     l365:	
  4460                           ;displays.c: 57:             do { LATAbits.LATA2 = 0; } while(0);
  4461                           
  4462  0556  110C               	bcf	12,2	;volatile
  4463  0557                     l367:	
  4464                           ;displays.c: 58:             do { LATAbits.LATA3 = 1; } while(0);
  4465                           
  4466  0557  158C               	bsf	12,3	;volatile
  4467  0558                     l369:	
  4468                           ;displays.c: 59:             do { LATAbits.LATA4 = 1; } while(0);
  4469                           
  4470  0558  160C               	bsf	12,4	;volatile
  4471  0559                     l371:	
  4472                           ;displays.c: 60:             do { LATAbits.LATA7 = 0; } while(0);
  4473                           
  4474  0559  138C               	bcf	12,7	;volatile
  4475  055A                     l373:	
  4476                           ;displays.c: 61:             do { LATAbits.LATA6 = 1; } while(0);
  4477                           
  4478  055A  170C               	bsf	12,6	;volatile
  4479  055B  2DCF               	goto	l495
  4480  055C                     l376:	
  4481                           ;displays.c: 69:             do { LATAbits.LATA0 = 1; } while(0);
  4482                           
  4483  055C  0022               	movlb	2	; select bank2
  4484  055D  140C               	bsf	12,0	;volatile
  4485  055E                     l378:	
  4486                           ;displays.c: 70:             do { LATAbits.LATA1 = 1; } while(0);
  4487                           
  4488  055E  148C               	bsf	12,1	;volatile
  4489  055F                     l380:	
  4490                           ;displays.c: 71:             do { LATAbits.LATA2 = 1; } while(0);
  4491                           
  4492  055F  150C               	bsf	12,2	;volatile
  4493  0560                     l382:	
  4494                           ;displays.c: 72:             do { LATAbits.LATA3 = 1; } while(0);
  4495                           
  4496  0560  158C               	bsf	12,3	;volatile
  4497  0561                     l384:	
  4498                           ;displays.c: 73:             do { LATAbits.LATA4 = 0; } while(0);
  4499                           
  4500  0561  120C               	bcf	12,4	;volatile
  4501  0562                     l386:	
  4502                           ;displays.c: 74:             do { LATAbits.LATA7 = 0; } while(0);
  4503                           
  4504  0562  138C               	bcf	12,7	;volatile
  4505  0563                     l388:	
  4506                           ;displays.c: 75:             do { LATAbits.LATA6 = 1; } while(0);
  4507                           
  4508  0563  170C               	bsf	12,6	;volatile
  4509  0564  2DCF               	goto	l495
  4510  0565                     l391:	
  4511                           ;displays.c: 84:             do { LATAbits.LATA0 = 0; } while(0);
  4512                           
  4513  0565  0022               	movlb	2	; select bank2
  4514  0566  100C               	bcf	12,0	;volatile
  4515  0567                     l393:	
  4516                           ;displays.c: 85:             do { LATAbits.LATA1 = 1; } while(0);
  4517                           
  4518  0567  148C               	bsf	12,1	;volatile
  4519  0568                     l395:	
  4520                           ;displays.c: 86:             do { LATAbits.LATA2 = 1; } while(0);
  4521                           
  4522  0568  150C               	bsf	12,2	;volatile
  4523  0569                     l397:	
  4524                           ;displays.c: 87:             do { LATAbits.LATA3 = 0; } while(0);
  4525                           
  4526  0569  118C               	bcf	12,3	;volatile
  4527  056A                     l399:	
  4528                           ;displays.c: 88:             do { LATAbits.LATA4 = 0; } while(0);
  4529                           
  4530  056A  120C               	bcf	12,4	;volatile
  4531  056B                     l401:	
  4532                           ;displays.c: 89:             do { LATAbits.LATA7 = 1; } while(0);
  4533                           
  4534  056B  178C               	bsf	12,7	;volatile
  4535  056C                     l403:	
  4536                           ;displays.c: 90:             do { LATAbits.LATA6 = 1; } while(0);
  4537                           
  4538  056C  170C               	bsf	12,6	;volatile
  4539  056D  2DCF               	goto	l495
  4540  056E                     l406:	
  4541                           ;displays.c: 97:             do { LATAbits.LATA0 = 1; } while(0);
  4542                           
  4543  056E  0022               	movlb	2	; select bank2
  4544  056F  140C               	bsf	12,0	;volatile
  4545  0570                     l408:	
  4546                           ;displays.c: 98:             do { LATAbits.LATA1 = 0; } while(0);
  4547                           
  4548  0570  108C               	bcf	12,1	;volatile
  4549  0571                     l410:	
  4550                           ;displays.c: 99:             do { LATAbits.LATA2 = 1; } while(0);
  4551                           
  4552  0571  150C               	bsf	12,2	;volatile
  4553  0572                     l412:	
  4554                           ;displays.c: 100:             do { LATAbits.LATA3 = 1; } while(0);
  4555                           
  4556  0572  158C               	bsf	12,3	;volatile
  4557  0573                     l414:	
  4558                           ;displays.c: 101:             do { LATAbits.LATA4 = 0; } while(0);
  4559                           
  4560  0573  120C               	bcf	12,4	;volatile
  4561  0574                     l416:	
  4562                           ;displays.c: 102:             do { LATAbits.LATA7 = 1; } while(0);
  4563                           
  4564  0574  178C               	bsf	12,7	;volatile
  4565  0575                     l418:	
  4566                           ;displays.c: 103:             do { LATAbits.LATA6 = 1; } while(0);
  4567                           
  4568  0575  170C               	bsf	12,6	;volatile
  4569  0576  2DCF               	goto	l495
  4570  0577                     l421:	
  4571                           ;displays.c: 111:             do { LATAbits.LATA0 = 1; } while(0);
  4572                           
  4573  0577  0022               	movlb	2	; select bank2
  4574  0578  140C               	bsf	12,0	;volatile
  4575  0579                     l423:	
  4576                           ;displays.c: 112:             do { LATAbits.LATA1 = 0; } while(0);
  4577                           
  4578  0579  108C               	bcf	12,1	;volatile
  4579  057A                     l425:	
  4580                           ;displays.c: 113:             do { LATAbits.LATA2 = 1; } while(0);
  4581                           
  4582  057A  150C               	bsf	12,2	;volatile
  4583  057B                     l427:	
  4584                           ;displays.c: 114:             do { LATAbits.LATA3 = 1; } while(0);
  4585                           
  4586  057B  158C               	bsf	12,3	;volatile
  4587  057C                     l429:	
  4588                           ;displays.c: 115:             do { LATAbits.LATA4 = 1; } while(0);
  4589                           
  4590  057C  160C               	bsf	12,4	;volatile
  4591  057D                     l431:	
  4592                           ;displays.c: 116:             do { LATAbits.LATA7 = 1; } while(0);
  4593                           
  4594  057D  178C               	bsf	12,7	;volatile
  4595  057E                     l433:	
  4596                           ;displays.c: 117:             do { LATAbits.LATA6 = 1; } while(0);
  4597                           
  4598  057E  170C               	bsf	12,6	;volatile
  4599  057F  2DCF               	goto	l495
  4600  0580                     l436:	
  4601                           ;displays.c: 125:             do { LATAbits.LATA0 = 1; } while(0);
  4602                           
  4603  0580  0022               	movlb	2	; select bank2
  4604  0581  140C               	bsf	12,0	;volatile
  4605  0582                     l438:	
  4606                           ;displays.c: 126:             do { LATAbits.LATA1 = 1; } while(0);
  4607                           
  4608  0582  148C               	bsf	12,1	;volatile
  4609  0583                     l440:	
  4610                           ;displays.c: 127:             do { LATAbits.LATA2 = 1; } while(0);
  4611                           
  4612  0583  150C               	bsf	12,2	;volatile
  4613  0584                     l442:	
  4614                           ;displays.c: 128:             do { LATAbits.LATA3 = 0; } while(0);
  4615                           
  4616  0584  118C               	bcf	12,3	;volatile
  4617  0585                     l444:	
  4618                           ;displays.c: 129:             do { LATAbits.LATA4 = 0; } while(0);
  4619                           
  4620  0585  120C               	bcf	12,4	;volatile
  4621  0586                     l446:	
  4622                           ;displays.c: 130:             do { LATAbits.LATA7 = 0; } while(0);
  4623                           
  4624  0586  138C               	bcf	12,7	;volatile
  4625  0587                     l448:	
  4626                           ;displays.c: 131:             do { LATAbits.LATA6 = 0; } while(0);
  4627                           
  4628  0587  130C               	bcf	12,6	;volatile
  4629  0588  2DCF               	goto	l495
  4630  0589                     l451:	
  4631                           ;displays.c: 139:             do { LATAbits.LATA0 = 1; } while(0);
  4632                           
  4633  0589  0022               	movlb	2	; select bank2
  4634  058A  140C               	bsf	12,0	;volatile
  4635  058B                     l453:	
  4636                           ;displays.c: 140:             do { LATAbits.LATA1 = 1; } while(0);
  4637                           
  4638  058B  148C               	bsf	12,1	;volatile
  4639  058C                     l455:	
  4640                           ;displays.c: 141:             do { LATAbits.LATA2 = 1; } while(0);
  4641                           
  4642  058C  150C               	bsf	12,2	;volatile
  4643  058D                     l457:	
  4644                           ;displays.c: 142:             do { LATAbits.LATA3 = 1; } while(0);
  4645                           
  4646  058D  158C               	bsf	12,3	;volatile
  4647  058E                     l459:	
  4648                           ;displays.c: 143:             do { LATAbits.LATA4 = 1; } while(0);
  4649                           
  4650  058E  160C               	bsf	12,4	;volatile
  4651  058F                     l461:	
  4652                           ;displays.c: 144:             do { LATAbits.LATA7 = 1; } while(0);
  4653                           
  4654  058F  178C               	bsf	12,7	;volatile
  4655  0590                     l463:	
  4656                           ;displays.c: 145:             do { LATAbits.LATA6 = 1; } while(0);
  4657                           
  4658  0590  170C               	bsf	12,6	;volatile
  4659  0591  2DCF               	goto	l495
  4660  0592                     l466:	
  4661                           ;displays.c: 153:             do { LATAbits.LATA0 = 1; } while(0);
  4662                           
  4663  0592  0022               	movlb	2	; select bank2
  4664  0593  140C               	bsf	12,0	;volatile
  4665  0594                     l468:	
  4666                           ;displays.c: 154:             do { LATAbits.LATA1 = 1; } while(0);
  4667                           
  4668  0594  148C               	bsf	12,1	;volatile
  4669  0595                     l470:	
  4670                           ;displays.c: 155:             do { LATAbits.LATA2 = 1; } while(0);
  4671                           
  4672  0595  150C               	bsf	12,2	;volatile
  4673  0596                     l472:	
  4674                           ;displays.c: 156:             do { LATAbits.LATA3 = 1; } while(0);
  4675                           
  4676  0596  158C               	bsf	12,3	;volatile
  4677  0597                     l474:	
  4678                           ;displays.c: 157:             do { LATAbits.LATA4 = 0; } while(0);
  4679                           
  4680  0597  120C               	bcf	12,4	;volatile
  4681  0598                     l476:	
  4682                           ;displays.c: 158:             do { LATAbits.LATA7 = 1; } while(0);
  4683                           
  4684  0598  178C               	bsf	12,7	;volatile
  4685  0599                     l478:	
  4686                           ;displays.c: 159:             do { LATAbits.LATA6 = 1; } while(0);
  4687                           
  4688  0599  170C               	bsf	12,6	;volatile
  4689  059A  2DCF               	goto	l495
  4690  059B                     l481:	
  4691                           ;displays.c: 165:       do { LATAbits.LATA0 = 1; } while(0);
  4692                           
  4693  059B  0022               	movlb	2	; select bank2
  4694  059C  140C               	bsf	12,0	;volatile
  4695  059D                     l483:	
  4696                           ;displays.c: 166:       do { LATAbits.LATA1 = 1; } while(0);
  4697                           
  4698  059D  148C               	bsf	12,1	;volatile
  4699  059E                     l485:	
  4700                           ;displays.c: 167:       do { LATAbits.LATA2 = 1; } while(0);
  4701                           
  4702  059E  150C               	bsf	12,2	;volatile
  4703  059F                     l487:	
  4704                           ;displays.c: 168:       do { LATAbits.LATA3 = 1; } while(0);
  4705                           
  4706  059F  158C               	bsf	12,3	;volatile
  4707  05A0                     l489:	
  4708                           ;displays.c: 169:             do { LATAbits.LATA4 = 1; } while(0);
  4709                           
  4710  05A0  160C               	bsf	12,4	;volatile
  4711  05A1                     l491:	
  4712                           ;displays.c: 170:             do { LATAbits.LATA7 = 1; } while(0);
  4713                           
  4714  05A1  178C               	bsf	12,7	;volatile
  4715  05A2                     l493:	
  4716                           ;displays.c: 171:       do { LATAbits.LATA7 = 1; } while(0);
  4717                           
  4718  05A2  178C               	bsf	12,7	;volatile
  4719  05A3  2DCF               	goto	l495
  4720  05A4                     l2689:
  4721  05A4  0875               	movf	Ds_BCD@segmento,w
  4722  05A5  00F3               	movwf	??_Ds_BCD
  4723  05A6  01F4               	clrf	??_Ds_BCD+1
  4724                           
  4725                           ; Switch on 2 bytes has been partitioned into a top level switch of size 1, and 1 sub-sw
      +                          itches
  4726                           ; Switch size 1, requested type "simple"
  4727                           ; Number of cases is 1, Range of values is 0 to 0
  4728                           ; switch strategies available:
  4729                           ; Name         Instructions Cycles
  4730                           ; simple_byte            4     3 (average)
  4731                           ; direct_byte            8     6 (fixed)
  4732                           ; jumptable            260     6 (fixed)
  4733                           ;	Chosen strategy is simple_byte
  4734  05A7  0874               	movf	??_Ds_BCD+1,w
  4735  05A8  3A00               	xorlw	0	; case 0
  4736  05A9  1903               	skipnz
  4737  05AA  2DAC               	goto	l3241
  4738  05AB  2DCF               	goto	l495
  4739  05AC                     l3241:
  4740                           
  4741                           ; Switch size 1, requested type "simple"
  4742                           ; Number of cases is 11, Range of values is 0 to 10
  4743                           ; switch strategies available:
  4744                           ; Name         Instructions Cycles
  4745                           ; direct_byte           28     6 (fixed)
  4746                           ; simple_byte           34    18 (average)
  4747                           ; jumptable            260     6 (fixed)
  4748                           ;	Chosen strategy is simple_byte
  4749  05AC  0873               	movf	??_Ds_BCD,w
  4750  05AD  3A00               	xorlw	0	; case 0
  4751  05AE  1903               	skipnz
  4752  05AF  2D41               	goto	l330
  4753  05B0  3A01               	xorlw	1	; case 1
  4754  05B1  1903               	skipnz
  4755  05B2  2D4A               	goto	l346
  4756  05B3  3A03               	xorlw	3	; case 2
  4757  05B4  1903               	skipnz
  4758  05B5  2D53               	goto	l361
  4759  05B6  3A01               	xorlw	1	; case 3
  4760  05B7  1903               	skipnz
  4761  05B8  2D5C               	goto	l376
  4762  05B9  3A07               	xorlw	7	; case 4
  4763  05BA  1903               	skipnz
  4764  05BB  2D65               	goto	l391
  4765  05BC  3A01               	xorlw	1	; case 5
  4766  05BD  1903               	skipnz
  4767  05BE  2D6E               	goto	l406
  4768  05BF  3A03               	xorlw	3	; case 6
  4769  05C0  1903               	skipnz
  4770  05C1  2D77               	goto	l421
  4771  05C2  3A01               	xorlw	1	; case 7
  4772  05C3  1903               	skipnz
  4773  05C4  2D80               	goto	l436
  4774  05C5  3A0F               	xorlw	15	; case 8
  4775  05C6  1903               	skipnz
  4776  05C7  2D89               	goto	l451
  4777  05C8  3A01               	xorlw	1	; case 9
  4778  05C9  1903               	skipnz
  4779  05CA  2D92               	goto	l466
  4780  05CB  3A03               	xorlw	3	; case 10
  4781  05CC  1903               	skipnz
  4782  05CD  2D9B               	goto	l481
  4783  05CE  2DCF               	goto	l495
  4784  05CF                     l495:
  4785  05CF  0008               	return
  4786  05D0                     __end_of_Ds_BCD:
  4787                           
  4788                           	psect	text23
  4789  0703                     __ptext23:	
  4790 ;; *************** function _Ds_Iniciar_displays *****************
  4791 ;; Defined at:
  4792 ;;		line 9 in file "displays.c"
  4793 ;; Parameters:    Size  Location     Type
  4794 ;;  dsp             1    wreg     PTR struct Ds_Display
  4795 ;;		 -> main@seven_seg(8), 
  4796 ;;  d1              1    3[COMMON] unsigned char 
  4797 ;;  d2              1    4[COMMON] unsigned char 
  4798 ;;  d3              1    5[COMMON] unsigned char 
  4799 ;;  tE              1    6[COMMON] unsigned char 
  4800 ;;  tA              1    7[COMMON] unsigned char 
  4801 ;; Auto vars:     Size  Location     Type
  4802 ;;  dsp             1    0[BANK0 ] PTR struct Ds_Display
  4803 ;;		 -> main@seven_seg(8), 
  4804 ;; Return value:  Size  Location     Type
  4805 ;;                  1    wreg      void 
  4806 ;; Registers used:
  4807 ;;		wreg, fsr1l, fsr1h, status,2, status,0
  4808 ;; Tracked objects:
  4809 ;;		On entry : 0/0
  4810 ;;		On exit  : 0/0
  4811 ;;		Unchanged: 0/0
  4812 ;; Data sizes:     COMMON   BANK0   BANK1   BANK2   BANK3   BANK4
  4813 ;;      Params:         5       0       0       0       0       0
  4814 ;;      Locals:         0       1       0       0       0       0
  4815 ;;      Temps:          1       0       0       0       0       0
  4816 ;;      Totals:         6       1       0       0       0       0
  4817 ;;Total ram usage:        7 bytes
  4818 ;; Hardware stack levels used: 1
  4819 ;; Hardware stack levels required when called: 4
  4820 ;; This function calls:
  4821 ;;		Nothing
  4822 ;; This function is called by:
  4823 ;;		_main
  4824 ;; This function uses a non-reentrant model
  4825 ;;
  4826                           
  4827                           
  4828                           ;psect for function _Ds_Iniciar_displays
  4829  0703                     _Ds_Iniciar_displays:
  4830                           
  4831                           ;incstack = 0
  4832                           ; Regs used in _Ds_Iniciar_displays: [wreg+fsr1l+fsr1h+status,2+status,0]
  4833                           ;Ds_Iniciar_displays@dsp stored from wreg
  4834  0703  0020               	movlb	0	; select bank0
  4835  0704  00A0               	movwf	Ds_Iniciar_displays@dsp
  4836  0705                     l3001:
  4837                           
  4838                           ;displays.c: 10:     dsp->estados=1;
  4839  0705  0820               	movf	Ds_Iniciar_displays@dsp,w
  4840  0706  0086               	movwf	6
  4841  0707  0187               	clrf	7
  4842  0708  0181               	clrf	1
  4843  0709  0A81               	incf	1,f
  4844                           
  4845                           ;displays.c: 11:     dsp->D1=d1;
  4846  070A  0873               	movf	Ds_Iniciar_displays@d1,w
  4847  070B  00F8               	movwf	??_Ds_Iniciar_displays
  4848  070C  0A20               	incf	Ds_Iniciar_displays@dsp,w
  4849  070D  0086               	movwf	6
  4850  070E  0187               	clrf	7
  4851  070F  0878               	movf	??_Ds_Iniciar_displays,w
  4852  0710  0081               	movwf	1
  4853  0711                     l3003:
  4854                           
  4855                           ;displays.c: 12:     dsp->D2=d2;
  4856  0711  0874               	movf	Ds_Iniciar_displays@d2,w
  4857  0712  00F8               	movwf	??_Ds_Iniciar_displays
  4858  0713  0820               	movf	Ds_Iniciar_displays@dsp,w
  4859  0714  3E02               	addlw	2
  4860  0715  0086               	movwf	6
  4861  0716  0187               	clrf	7
  4862  0717  0878               	movf	??_Ds_Iniciar_displays,w
  4863  0718  0081               	movwf	1
  4864  0719                     l3005:
  4865                           
  4866                           ;displays.c: 13:     dsp->D3=d3;
  4867  0719  0875               	movf	Ds_Iniciar_displays@d3,w
  4868  071A  00F8               	movwf	??_Ds_Iniciar_displays
  4869  071B  0820               	movf	Ds_Iniciar_displays@dsp,w
  4870  071C  3E03               	addlw	3
  4871  071D  0086               	movwf	6
  4872  071E  0187               	clrf	7
  4873  071F  0878               	movf	??_Ds_Iniciar_displays,w
  4874  0720  0081               	movwf	1
  4875  0721                     l3007:
  4876                           
  4877                           ;displays.c: 14:     dsp->tiempoEncendido=tE;
  4878  0721  0876               	movf	Ds_Iniciar_displays@tE,w
  4879  0722  00F8               	movwf	??_Ds_Iniciar_displays
  4880  0723  0820               	movf	Ds_Iniciar_displays@dsp,w
  4881  0724  3E04               	addlw	4
  4882  0725  0086               	movwf	6
  4883  0726  0187               	clrf	7
  4884  0727  0878               	movf	??_Ds_Iniciar_displays,w
  4885  0728  0081               	movwf	1
  4886  0729                     l3009:
  4887                           
  4888                           ;displays.c: 15:     dsp->tiempoApagado=tA;
  4889  0729  0877               	movf	Ds_Iniciar_displays@tA,w
  4890  072A  00F8               	movwf	??_Ds_Iniciar_displays
  4891  072B  0820               	movf	Ds_Iniciar_displays@dsp,w
  4892  072C  3E05               	addlw	5
  4893  072D  0086               	movwf	6
  4894  072E  0187               	clrf	7
  4895  072F  0878               	movf	??_Ds_Iniciar_displays,w
  4896  0730  0081               	movwf	1
  4897  0731                     l3011:
  4898                           
  4899                           ;displays.c: 16:     dsp->tempE=tE;
  4900  0731  0876               	movf	Ds_Iniciar_displays@tE,w
  4901  0732  00F8               	movwf	??_Ds_Iniciar_displays
  4902  0733  0820               	movf	Ds_Iniciar_displays@dsp,w
  4903  0734  3E06               	addlw	6
  4904  0735  0086               	movwf	6
  4905  0736  0187               	clrf	7
  4906  0737  0878               	movf	??_Ds_Iniciar_displays,w
  4907  0738  0081               	movwf	1
  4908  0739                     l3013:
  4909                           
  4910                           ;displays.c: 17:     dsp->tempA=tA;
  4911  0739  0877               	movf	Ds_Iniciar_displays@tA,w
  4912  073A  00F8               	movwf	??_Ds_Iniciar_displays
  4913  073B  0820               	movf	Ds_Iniciar_displays@dsp,w
  4914  073C  3E07               	addlw	7
  4915  073D  0086               	movwf	6
  4916  073E  0187               	clrf	7
  4917  073F  0878               	movf	??_Ds_Iniciar_displays,w
  4918  0740  0081               	movwf	1
  4919  0741                     l325:
  4920  0741  0008               	return
  4921  0742                     __end_of_Ds_Iniciar_displays:
  4922                           
  4923                           	psect	text24
  4924  06A5                     __ptext24:	
  4925 ;; *************** function _Ds_Convertir_en_uni *****************
  4926 ;; Defined at:
  4927 ;;		line 178 in file "displays.c"
  4928 ;; Parameters:    Size  Location     Type
  4929 ;;  dsp             1    wreg     PTR struct Ds_Display
  4930 ;;		 -> main@seven_seg(8), 
  4931 ;;  voltaje         2    3[BANK0 ] unsigned short 
  4932 ;; Auto vars:     Size  Location     Type
  4933 ;;  dsp             1    6[BANK0 ] PTR struct Ds_Display
  4934 ;;		 -> main@seven_seg(8), 
  4935 ;; Return value:  Size  Location     Type
  4936 ;;                  1    wreg      void 
  4937 ;; Registers used:
  4938 ;;		wreg, fsr1l, fsr1h, status,2, status,0, pclath, cstack
  4939 ;; Tracked objects:
  4940 ;;		On entry : 0/0
  4941 ;;		On exit  : 0/0
  4942 ;;		Unchanged: 0/0
  4943 ;; Data sizes:     COMMON   BANK0   BANK1   BANK2   BANK3   BANK4
  4944 ;;      Params:         0       2       0       0       0       0
  4945 ;;      Locals:         0       1       0       0       0       0
  4946 ;;      Temps:          0       1       0       0       0       0
  4947 ;;      Totals:         0       4       0       0       0       0
  4948 ;;Total ram usage:        4 bytes
  4949 ;; Hardware stack levels used: 1
  4950 ;; Hardware stack levels required when called: 5
  4951 ;; This function calls:
  4952 ;;		___lwdiv
  4953 ;;		___lwmod
  4954 ;; This function is called by:
  4955 ;;		_main
  4956 ;; This function uses a non-reentrant model
  4957 ;;
  4958                           
  4959                           
  4960                           ;psect for function _Ds_Convertir_en_uni
  4961  06A5                     _Ds_Convertir_en_uni:
  4962                           
  4963                           ;incstack = 0
  4964                           ; Regs used in _Ds_Convertir_en_uni: [wreg+fsr1l+fsr1h+status,2+status,0+pclath+cstack]
  4965                           ;Ds_Convertir_en_uni@dsp stored from wreg
  4966  06A5  0020               	movlb	0	; select bank0
  4967  06A6  00A6               	movwf	Ds_Convertir_en_uni@dsp
  4968  06A7                     l3109:
  4969                           
  4970                           ;displays.c: 179:  dsp->D1 = voltaje % 10;
  4971  06A7  300A               	movlw	10
  4972  06A8  00F3               	movwf	___lwmod@divisor
  4973  06A9  3000               	movlw	0
  4974  06AA  00F4               	movwf	___lwmod@divisor+1
  4975  06AB  0824               	movf	Ds_Convertir_en_uni@voltaje+1,w
  4976  06AC  00F6               	movwf	___lwmod@dividend+1
  4977  06AD  0823               	movf	Ds_Convertir_en_uni@voltaje,w
  4978  06AE  00F5               	movwf	___lwmod@dividend
  4979  06AF  3187  27BC  3186   	fcall	___lwmod
  4980  06B2  0873               	movf	?___lwmod,w
  4981  06B3  0020               	movlb	0	; select bank0
  4982  06B4  00A5               	movwf	??_Ds_Convertir_en_uni
  4983  06B5  0A26               	incf	Ds_Convertir_en_uni@dsp,w
  4984  06B6  0086               	movwf	6
  4985  06B7  0187               	clrf	7
  4986  06B8  0825               	movf	??_Ds_Convertir_en_uni,w
  4987  06B9  0081               	movwf	1
  4988  06BA                     l3111:
  4989                           
  4990                           ;displays.c: 180:  voltaje = voltaje/10;
  4991  06BA  300A               	movlw	10
  4992  06BB  00F3               	movwf	___lwdiv@divisor
  4993  06BC  3000               	movlw	0
  4994  06BD  00F4               	movwf	___lwdiv@divisor+1
  4995  06BE  0824               	movf	Ds_Convertir_en_uni@voltaje+1,w
  4996  06BF  00F6               	movwf	___lwdiv@dividend+1
  4997  06C0  0823               	movf	Ds_Convertir_en_uni@voltaje,w
  4998  06C1  00F5               	movwf	___lwdiv@dividend
  4999  06C2  3187  2742  3186   	fcall	___lwdiv
  5000  06C5  0874               	movf	?___lwdiv+1,w
  5001  06C6  0020               	movlb	0	; select bank0
  5002  06C7  00A4               	movwf	Ds_Convertir_en_uni@voltaje+1
  5003  06C8  0873               	movf	?___lwdiv,w
  5004  06C9  00A3               	movwf	Ds_Convertir_en_uni@voltaje
  5005  06CA                     l3113:
  5006                           
  5007                           ;displays.c: 181:  dsp->D2 = voltaje % 10;
  5008  06CA  300A               	movlw	10
  5009  06CB  00F3               	movwf	___lwmod@divisor
  5010  06CC  3000               	movlw	0
  5011  06CD  00F4               	movwf	___lwmod@divisor+1
  5012  06CE  0824               	movf	Ds_Convertir_en_uni@voltaje+1,w
  5013  06CF  00F6               	movwf	___lwmod@dividend+1
  5014  06D0  0823               	movf	Ds_Convertir_en_uni@voltaje,w
  5015  06D1  00F5               	movwf	___lwmod@dividend
  5016  06D2  3187  27BC  3186   	fcall	___lwmod
  5017  06D5  0873               	movf	?___lwmod,w
  5018  06D6  0020               	movlb	0	; select bank0
  5019  06D7  00A5               	movwf	??_Ds_Convertir_en_uni
  5020  06D8  0826               	movf	Ds_Convertir_en_uni@dsp,w
  5021  06D9  3E02               	addlw	2
  5022  06DA  0086               	movwf	6
  5023  06DB  0187               	clrf	7
  5024  06DC  0825               	movf	??_Ds_Convertir_en_uni,w
  5025  06DD  0081               	movwf	1
  5026                           
  5027                           ;displays.c: 182:  voltaje = voltaje/10;
  5028  06DE  300A               	movlw	10
  5029  06DF  00F3               	movwf	___lwdiv@divisor
  5030  06E0  3000               	movlw	0
  5031  06E1  00F4               	movwf	___lwdiv@divisor+1
  5032  06E2  0824               	movf	Ds_Convertir_en_uni@voltaje+1,w
  5033  06E3  00F6               	movwf	___lwdiv@dividend+1
  5034  06E4  0823               	movf	Ds_Convertir_en_uni@voltaje,w
  5035  06E5  00F5               	movwf	___lwdiv@dividend
  5036  06E6  3187  2742  3186   	fcall	___lwdiv
  5037  06E9  0874               	movf	?___lwdiv+1,w
  5038  06EA  0020               	movlb	0	; select bank0
  5039  06EB  00A4               	movwf	Ds_Convertir_en_uni@voltaje+1
  5040  06EC  0873               	movf	?___lwdiv,w
  5041  06ED  00A3               	movwf	Ds_Convertir_en_uni@voltaje
  5042  06EE                     l3115:
  5043                           
  5044                           ;displays.c: 183:  dsp->D3 = voltaje % 10;
  5045  06EE  300A               	movlw	10
  5046  06EF  00F3               	movwf	___lwmod@divisor
  5047  06F0  3000               	movlw	0
  5048  06F1  00F4               	movwf	___lwmod@divisor+1
  5049  06F2  0824               	movf	Ds_Convertir_en_uni@voltaje+1,w
  5050  06F3  00F6               	movwf	___lwmod@dividend+1
  5051  06F4  0823               	movf	Ds_Convertir_en_uni@voltaje,w
  5052  06F5  00F5               	movwf	___lwmod@dividend
  5053  06F6  3187  27BC  3186   	fcall	___lwmod
  5054  06F9  0873               	movf	?___lwmod,w
  5055  06FA  0020               	movlb	0	; select bank0
  5056  06FB  00A5               	movwf	??_Ds_Convertir_en_uni
  5057  06FC  0826               	movf	Ds_Convertir_en_uni@dsp,w
  5058  06FD  3E03               	addlw	3
  5059  06FE  0086               	movwf	6
  5060  06FF  0187               	clrf	7
  5061  0700  0825               	movf	??_Ds_Convertir_en_uni,w
  5062  0701  0081               	movwf	1
  5063  0702                     l498:
  5064  0702  0008               	return
  5065  0703                     __end_of_Ds_Convertir_en_uni:
  5066                           
  5067                           	psect	text25
  5068  07BC                     __ptext25:	
  5069 ;; *************** function ___lwmod *****************
  5070 ;; Defined at:
  5071 ;;		line 5 in file "C:\Program Files\Microchip\xc8\v2.32\pic\sources\c99\common\lwmod.c"
  5072 ;; Parameters:    Size  Location     Type
  5073 ;;  divisor         2    3[COMMON] unsigned int 
  5074 ;;  dividend        2    5[COMMON] unsigned int 
  5075 ;; Auto vars:     Size  Location     Type
  5076 ;;  counter         1    8[COMMON] unsigned char 
  5077 ;; Return value:  Size  Location     Type
  5078 ;;                  2    3[COMMON] unsigned int 
  5079 ;; Registers used:
  5080 ;;		wreg, status,2, status,0
  5081 ;; Tracked objects:
  5082 ;;		On entry : 0/0
  5083 ;;		On exit  : 0/0
  5084 ;;		Unchanged: 0/0
  5085 ;; Data sizes:     COMMON   BANK0   BANK1   BANK2   BANK3   BANK4
  5086 ;;      Params:         4       0       0       0       0       0
  5087 ;;      Locals:         1       0       0       0       0       0
  5088 ;;      Temps:          1       0       0       0       0       0
  5089 ;;      Totals:         6       0       0       0       0       0
  5090 ;;Total ram usage:        6 bytes
  5091 ;; Hardware stack levels used: 1
  5092 ;; Hardware stack levels required when called: 4
  5093 ;; This function calls:
  5094 ;;		Nothing
  5095 ;; This function is called by:
  5096 ;;		_Ds_Convertir_en_uni
  5097 ;; This function uses a non-reentrant model
  5098 ;;
  5099                           
  5100                           
  5101                           ;psect for function ___lwmod
  5102  07BC                     ___lwmod:
  5103  07BC                     l2763:	
  5104                           ;incstack = 0
  5105                           ; Regs used in ___lwmod: [wreg+status,2+status,0]
  5106                           
  5107  07BC  0873               	movf	___lwmod@divisor,w
  5108  07BD  0474               	iorwf	___lwmod@divisor+1,w
  5109  07BE  1903               	btfsc	3,2
  5110  07BF  2FC1               	goto	u2141
  5111  07C0  2FC2               	goto	u2140
  5112  07C1                     u2141:
  5113  07C1  2FEB               	goto	l2781
  5114  07C2                     u2140:
  5115  07C2                     l2765:
  5116  07C2  01F8               	clrf	___lwmod@counter
  5117  07C3  0AF8               	incf	___lwmod@counter,f
  5118  07C4  2FCE               	goto	l2771
  5119  07C5                     l2767:
  5120  07C5  3001               	movlw	1
  5121  07C6                     u2155:
  5122  07C6  35F3               	lslf	___lwmod@divisor,f
  5123  07C7  0DF4               	rlf	___lwmod@divisor+1,f
  5124  07C8  0B89               	decfsz	9,f
  5125  07C9  2FC6               	goto	u2155
  5126  07CA                     l2769:
  5127  07CA  3001               	movlw	1
  5128  07CB  00F7               	movwf	??___lwmod
  5129  07CC  0877               	movf	??___lwmod,w
  5130  07CD  07F8               	addwf	___lwmod@counter,f
  5131  07CE                     l2771:
  5132  07CE  1FF4               	btfss	___lwmod@divisor+1,7
  5133  07CF  2FD1               	goto	u2161
  5134  07D0  2FD2               	goto	u2160
  5135  07D1                     u2161:
  5136  07D1  2FC5               	goto	l2767
  5137  07D2                     u2160:
  5138  07D2                     l2773:
  5139  07D2  0874               	movf	___lwmod@divisor+1,w
  5140  07D3  0276               	subwf	___lwmod@dividend+1,w
  5141  07D4  1D03               	skipz
  5142  07D5  2FD8               	goto	u2175
  5143  07D6  0873               	movf	___lwmod@divisor,w
  5144  07D7  0275               	subwf	___lwmod@dividend,w
  5145  07D8                     u2175:
  5146  07D8  1C03               	skipc
  5147  07D9  2FDB               	goto	u2171
  5148  07DA  2FDC               	goto	u2170
  5149  07DB                     u2171:
  5150  07DB  2FE0               	goto	l2777
  5151  07DC                     u2170:
  5152  07DC                     l2775:
  5153  07DC  0873               	movf	___lwmod@divisor,w
  5154  07DD  02F5               	subwf	___lwmod@dividend,f
  5155  07DE  0874               	movf	___lwmod@divisor+1,w
  5156  07DF  3BF6               	subwfb	___lwmod@dividend+1,f
  5157  07E0                     l2777:
  5158  07E0  3001               	movlw	1
  5159  07E1                     u2185:
  5160  07E1  36F4               	lsrf	___lwmod@divisor+1,f
  5161  07E2  0CF3               	rrf	___lwmod@divisor,f
  5162  07E3  0B89               	decfsz	9,f
  5163  07E4  2FE1               	goto	u2185
  5164  07E5                     l2779:
  5165  07E5  3001               	movlw	1
  5166  07E6  02F8               	subwf	___lwmod@counter,f
  5167  07E7  1D03               	btfss	3,2
  5168  07E8  2FEA               	goto	u2191
  5169  07E9  2FEB               	goto	u2190
  5170  07EA                     u2191:
  5171  07EA  2FD2               	goto	l2773
  5172  07EB                     u2190:
  5173  07EB                     l2781:
  5174  07EB  0876               	movf	___lwmod@dividend+1,w
  5175  07EC  00F4               	movwf	?___lwmod+1
  5176  07ED  0875               	movf	___lwmod@dividend,w
  5177  07EE  00F3               	movwf	?___lwmod
  5178  07EF                     l1049:
  5179  07EF  0008               	return
  5180  07F0                     __end_of___lwmod:
  5181                           
  5182                           	psect	text26
  5183  0742                     __ptext26:	
  5184 ;; *************** function ___lwdiv *****************
  5185 ;; Defined at:
  5186 ;;		line 5 in file "C:\Program Files\Microchip\xc8\v2.32\pic\sources\c99\common\lwdiv.c"
  5187 ;; Parameters:    Size  Location     Type
  5188 ;;  divisor         2    3[COMMON] unsigned int 
  5189 ;;  dividend        2    5[COMMON] unsigned int 
  5190 ;; Auto vars:     Size  Location     Type
  5191 ;;  quotient        2    1[BANK0 ] unsigned int 
  5192 ;;  counter         1    0[BANK0 ] unsigned char 
  5193 ;; Return value:  Size  Location     Type
  5194 ;;                  2    3[COMMON] unsigned int 
  5195 ;; Registers used:
  5196 ;;		wreg, status,2, status,0
  5197 ;; Tracked objects:
  5198 ;;		On entry : 0/0
  5199 ;;		On exit  : 0/0
  5200 ;;		Unchanged: 0/0
  5201 ;; Data sizes:     COMMON   BANK0   BANK1   BANK2   BANK3   BANK4
  5202 ;;      Params:         4       0       0       0       0       0
  5203 ;;      Locals:         0       3       0       0       0       0
  5204 ;;      Temps:          1       0       0       0       0       0
  5205 ;;      Totals:         5       3       0       0       0       0
  5206 ;;Total ram usage:        8 bytes
  5207 ;; Hardware stack levels used: 1
  5208 ;; Hardware stack levels required when called: 4
  5209 ;; This function calls:
  5210 ;;		Nothing
  5211 ;; This function is called by:
  5212 ;;		_Ds_Convertir_en_uni
  5213 ;; This function uses a non-reentrant model
  5214 ;;
  5215                           
  5216                           
  5217                           ;psect for function ___lwdiv
  5218  0742                     ___lwdiv:
  5219  0742                     l2737:	
  5220                           ;incstack = 0
  5221                           ; Regs used in ___lwdiv: [wreg+status,2+status,0]
  5222                           
  5223  0742  0020               	movlb	0	; select bank0
  5224  0743  01A1               	clrf	___lwdiv@quotient
  5225  0744  01A2               	clrf	___lwdiv@quotient+1
  5226  0745                     l2739:
  5227  0745  0873               	movf	___lwdiv@divisor,w
  5228  0746  0474               	iorwf	___lwdiv@divisor+1,w
  5229  0747  1903               	btfsc	3,2
  5230  0748  2F4A               	goto	u2071
  5231  0749  2F4B               	goto	u2070
  5232  074A                     u2071:
  5233  074A  2F7A               	goto	l2759
  5234  074B                     u2070:
  5235  074B                     l2741:
  5236  074B  01A0               	clrf	___lwdiv@counter
  5237  074C  0AA0               	incf	___lwdiv@counter,f
  5238  074D  2F57               	goto	l2747
  5239  074E                     l2743:
  5240  074E  3001               	movlw	1
  5241  074F                     u2085:
  5242  074F  35F3               	lslf	___lwdiv@divisor,f
  5243  0750  0DF4               	rlf	___lwdiv@divisor+1,f
  5244  0751  0B89               	decfsz	9,f
  5245  0752  2F4F               	goto	u2085
  5246  0753                     l2745:
  5247  0753  3001               	movlw	1
  5248  0754  00F7               	movwf	??___lwdiv
  5249  0755  0877               	movf	??___lwdiv,w
  5250  0756  07A0               	addwf	___lwdiv@counter,f
  5251  0757                     l2747:
  5252  0757  1FF4               	btfss	___lwdiv@divisor+1,7
  5253  0758  2F5A               	goto	u2091
  5254  0759  2F5B               	goto	u2090
  5255  075A                     u2091:
  5256  075A  2F4E               	goto	l2743
  5257  075B                     u2090:
  5258  075B                     l2749:
  5259  075B  3001               	movlw	1
  5260  075C                     u2105:
  5261  075C  35A1               	lslf	___lwdiv@quotient,f
  5262  075D  0DA2               	rlf	___lwdiv@quotient+1,f
  5263  075E  0B89               	decfsz	9,f
  5264  075F  2F5C               	goto	u2105
  5265  0760  0874               	movf	___lwdiv@divisor+1,w
  5266  0761  0276               	subwf	___lwdiv@dividend+1,w
  5267  0762  1D03               	skipz
  5268  0763  2F66               	goto	u2115
  5269  0764  0873               	movf	___lwdiv@divisor,w
  5270  0765  0275               	subwf	___lwdiv@dividend,w
  5271  0766                     u2115:
  5272  0766  1C03               	skipc
  5273  0767  2F69               	goto	u2111
  5274  0768  2F6A               	goto	u2110
  5275  0769                     u2111:
  5276  0769  2F6F               	goto	l2755
  5277  076A                     u2110:
  5278  076A                     l2751:
  5279  076A  0873               	movf	___lwdiv@divisor,w
  5280  076B  02F5               	subwf	___lwdiv@dividend,f
  5281  076C  0874               	movf	___lwdiv@divisor+1,w
  5282  076D  3BF6               	subwfb	___lwdiv@dividend+1,f
  5283  076E                     l2753:
  5284  076E  1421               	bsf	___lwdiv@quotient,0
  5285  076F                     l2755:
  5286  076F  3001               	movlw	1
  5287  0770                     u2125:
  5288  0770  36F4               	lsrf	___lwdiv@divisor+1,f
  5289  0771  0CF3               	rrf	___lwdiv@divisor,f
  5290  0772  0B89               	decfsz	9,f
  5291  0773  2F70               	goto	u2125
  5292  0774                     l2757:
  5293  0774  3001               	movlw	1
  5294  0775  02A0               	subwf	___lwdiv@counter,f
  5295  0776  1D03               	btfss	3,2
  5296  0777  2F79               	goto	u2131
  5297  0778  2F7A               	goto	u2130
  5298  0779                     u2131:
  5299  0779  2F5B               	goto	l2749
  5300  077A                     u2130:
  5301  077A                     l2759:
  5302  077A  0822               	movf	___lwdiv@quotient+1,w
  5303  077B  00F4               	movwf	?___lwdiv+1
  5304  077C  0821               	movf	___lwdiv@quotient,w
  5305  077D  00F3               	movwf	?___lwdiv
  5306  077E                     l1039:
  5307  077E  0008               	return
  5308  077F                     __end_of___lwdiv:
  5309                           
  5310                           	psect	text27
  5311  077F                     __ptext27:	
  5312 ;; *************** function _Ds_Conversor_ADC *****************
  5313 ;; Defined at:
  5314 ;;		line 186 in file "displays.c"
  5315 ;; Parameters:    Size  Location     Type
  5316 ;;  adcOUT          2   45[BANK0 ] unsigned short 
  5317 ;; Auto vars:     Size  Location     Type
  5318 ;;  pendiente       4   47[BANK0 ] float 
  5319 ;;  voltios         2   51[BANK0 ] unsigned short 
  5320 ;; Return value:  Size  Location     Type
  5321 ;;                  2   45[BANK0 ] unsigned short 
  5322 ;; Registers used:
  5323 ;;		wreg, status,2, status,0, pclath, cstack
  5324 ;; Tracked objects:
  5325 ;;		On entry : 0/0
  5326 ;;		On exit  : 0/0
  5327 ;;		Unchanged: 0/0
  5328 ;; Data sizes:     COMMON   BANK0   BANK1   BANK2   BANK3   BANK4
  5329 ;;      Params:         0       2       0       0       0       0
  5330 ;;      Locals:         0       6       0       0       0       0
  5331 ;;      Temps:          0       0       0       0       0       0
  5332 ;;      Totals:         0       8       0       0       0       0
  5333 ;;Total ram usage:        8 bytes
  5334 ;; Hardware stack levels used: 1
  5335 ;; Hardware stack levels required when called: 6
  5336 ;; This function calls:
  5337 ;;		___flmul
  5338 ;;		___fltol
  5339 ;;		___xxtofl
  5340 ;; This function is called by:
  5341 ;;		_main
  5342 ;; This function uses a non-reentrant model
  5343 ;;
  5344                           
  5345                           
  5346                           ;psect for function _Ds_Conversor_ADC
  5347  077F                     _Ds_Conversor_ADC:
  5348  077F                     l3101:	
  5349                           ;incstack = 0
  5350                           ; Regs used in _Ds_Conversor_ADC: [wreg+status,2+status,0+pclath+cstack]
  5351                           
  5352                           
  5353                           ;displays.c: 187:     float pendiente = 0.97665;
  5354  077F  303F               	movlw	63
  5355  0780  0020               	movlb	0	; select bank0
  5356  0781  00D2               	movwf	Ds_Conversor_ADC@pendiente+3
  5357  0782  307A               	movlw	122
  5358  0783  00D1               	movwf	Ds_Conversor_ADC@pendiente+2
  5359  0784  3005               	movlw	5
  5360  0785  00D0               	movwf	Ds_Conversor_ADC@pendiente+1
  5361  0786  30BC               	movlw	188
  5362  0787  00CF               	movwf	Ds_Conversor_ADC@pendiente
  5363  0788                     l3103:
  5364                           
  5365                           ;displays.c: 188:     uint16_t voltios = (uint16_t)(((float)adcOUT)*pendiente);
  5366  0788  084D               	movf	Ds_Conversor_ADC@adcOUT,w
  5367  0789  00F3               	movwf	___xxtofl@val
  5368  078A  084E               	movf	Ds_Conversor_ADC@adcOUT+1,w
  5369  078B  00F4               	movwf	___xxtofl@val+1
  5370  078C  01F5               	clrf	___xxtofl@val+2
  5371  078D  01F6               	clrf	___xxtofl@val+3
  5372  078E  3000               	movlw	0
  5373  078F  3184  2492  3187   	fcall	___xxtofl
  5374  0792  0876               	movf	?___xxtofl+3,w
  5375  0793  0020               	movlb	0	; select bank0
  5376  0794  00B1               	movwf	___flmul@a+3
  5377  0795  0875               	movf	?___xxtofl+2,w
  5378  0796  00B0               	movwf	___flmul@a+2
  5379  0797  0874               	movf	?___xxtofl+1,w
  5380  0798  00AF               	movwf	___flmul@a+1
  5381  0799  0873               	movf	?___xxtofl,w
  5382  079A  00AE               	movwf	___flmul@a
  5383  079B  0852               	movf	Ds_Conversor_ADC@pendiente+3,w
  5384  079C  00AD               	movwf	___flmul@b+3
  5385  079D  0851               	movf	Ds_Conversor_ADC@pendiente+2,w
  5386  079E  00AC               	movwf	___flmul@b+2
  5387  079F  0850               	movf	Ds_Conversor_ADC@pendiente+1,w
  5388  07A0  00AB               	movwf	___flmul@b+1
  5389  07A1  084F               	movf	Ds_Conversor_ADC@pendiente,w
  5390  07A2  00AA               	movwf	___flmul@b
  5391  07A3  3180  203F  3187   	fcall	___flmul
  5392  07A6  0020               	movlb	0	; select bank0
  5393  07A7  082D               	movf	?___flmul+3,w
  5394  07A8  00C7               	movwf	___fltol@f1+3
  5395  07A9  082C               	movf	?___flmul+2,w
  5396  07AA  00C6               	movwf	___fltol@f1+2
  5397  07AB  082B               	movf	?___flmul+1,w
  5398  07AC  00C5               	movwf	___fltol@f1+1
  5399  07AD  082A               	movf	?___flmul,w
  5400  07AE  00C4               	movwf	___fltol@f1
  5401  07AF  3185  25D0  3187   	fcall	___fltol
  5402  07B2  0020               	movlb	0	; select bank0
  5403  07B3  0845               	movf	?___fltol+1,w
  5404  07B4  00D4               	movwf	Ds_Conversor_ADC@voltios+1
  5405  07B5  0844               	movf	?___fltol,w
  5406  07B6  00D3               	movwf	Ds_Conversor_ADC@voltios
  5407  07B7                     l3105:
  5408                           
  5409                           ;displays.c: 189:  return(voltios);
  5410  07B7  0854               	movf	Ds_Conversor_ADC@voltios+1,w
  5411  07B8  00CE               	movwf	?_Ds_Conversor_ADC+1
  5412  07B9  0853               	movf	Ds_Conversor_ADC@voltios,w
  5413  07BA  00CD               	movwf	?_Ds_Conversor_ADC
  5414  07BB                     l501:
  5415  07BB  0008               	return
  5416  07BC                     __end_of_Ds_Conversor_ADC:
  5417                           
  5418                           	psect	text28
  5419  0492                     __ptext28:	
  5420 ;; *************** function ___xxtofl *****************
  5421 ;; Defined at:
  5422 ;;		line 10 in file "C:\Program Files\Microchip\xc8\v2.32\pic\sources\c99\common\xxtofl.c"
  5423 ;; Parameters:    Size  Location     Type
  5424 ;;  sign            1    wreg     unsigned char 
  5425 ;;  val             4    3[COMMON] long 
  5426 ;; Auto vars:     Size  Location     Type
  5427 ;;  sign            1    4[BANK0 ] unsigned char 
  5428 ;;  arg             4    6[BANK0 ] unsigned long 
  5429 ;;  exp             1    5[BANK0 ] unsigned char 
  5430 ;; Return value:  Size  Location     Type
  5431 ;;                  4    3[COMMON] unsigned char 
  5432 ;; Registers used:
  5433 ;;		wreg, status,2, status,0
  5434 ;; Tracked objects:
  5435 ;;		On entry : 0/0
  5436 ;;		On exit  : 0/0
  5437 ;;		Unchanged: 0/0
  5438 ;; Data sizes:     COMMON   BANK0   BANK1   BANK2   BANK3   BANK4
  5439 ;;      Params:         4       0       0       0       0       0
  5440 ;;      Locals:         0       6       0       0       0       0
  5441 ;;      Temps:          0       4       0       0       0       0
  5442 ;;      Totals:         4      10       0       0       0       0
  5443 ;;Total ram usage:       14 bytes
  5444 ;; Hardware stack levels used: 1
  5445 ;; Hardware stack levels required when called: 4
  5446 ;; This function calls:
  5447 ;;		Nothing
  5448 ;; This function is called by:
  5449 ;;		_Ds_Conversor_ADC
  5450 ;; This function uses a non-reentrant model
  5451 ;;
  5452                           
  5453                           
  5454                           ;psect for function ___xxtofl
  5455  0492                     ___xxtofl:
  5456                           
  5457                           ;incstack = 0
  5458                           ; Regs used in ___xxtofl: [wreg+status,2+status,0]
  5459                           ;___xxtofl@sign stored from wreg
  5460  0492  0020               	movlb	0	; select bank0
  5461  0493  00A4               	movwf	___xxtofl@sign
  5462  0494                     l2925:
  5463  0494  0824               	movf	___xxtofl@sign,w
  5464  0495  1903               	btfsc	3,2
  5465  0496  2C98               	goto	u2461
  5466  0497  2C99               	goto	u2460
  5467  0498                     u2461:
  5468  0498  2CAD               	goto	l2931
  5469  0499                     u2460:
  5470  0499                     l2927:
  5471  0499  1FF6               	btfss	___xxtofl@val+3,7
  5472  049A  2C9C               	goto	u2471
  5473  049B  2C9D               	goto	u2470
  5474  049C                     u2471:
  5475  049C  2CAD               	goto	l2931
  5476  049D                     u2470:
  5477  049D                     l2929:
  5478  049D  0973               	comf	___xxtofl@val,w
  5479  049E  00A6               	movwf	___xxtofl@arg
  5480  049F  0974               	comf	___xxtofl@val+1,w
  5481  04A0  00A7               	movwf	___xxtofl@arg+1
  5482  04A1  0975               	comf	___xxtofl@val+2,w
  5483  04A2  00A8               	movwf	___xxtofl@arg+2
  5484  04A3  0976               	comf	___xxtofl@val+3,w
  5485  04A4  00A9               	movwf	___xxtofl@arg+3
  5486  04A5  0AA6               	incf	___xxtofl@arg,f
  5487  04A6  1903               	skipnz
  5488  04A7  0AA7               	incf	___xxtofl@arg+1,f
  5489  04A8  1903               	skipnz
  5490  04A9  0AA8               	incf	___xxtofl@arg+2,f
  5491  04AA  1903               	skipnz
  5492  04AB  0AA9               	incf	___xxtofl@arg+3,f
  5493  04AC  2CB5               	goto	l1200
  5494  04AD                     l2931:
  5495  04AD  0876               	movf	___xxtofl@val+3,w
  5496  04AE  00A9               	movwf	___xxtofl@arg+3
  5497  04AF  0875               	movf	___xxtofl@val+2,w
  5498  04B0  00A8               	movwf	___xxtofl@arg+2
  5499  04B1  0874               	movf	___xxtofl@val+1,w
  5500  04B2  00A7               	movwf	___xxtofl@arg+1
  5501  04B3  0873               	movf	___xxtofl@val,w
  5502  04B4  00A6               	movwf	___xxtofl@arg
  5503  04B5                     l1200:
  5504  04B5  0876               	movf	___xxtofl@val+3,w
  5505  04B6  0475               	iorwf	___xxtofl@val+2,w
  5506  04B7  0474               	iorwf	___xxtofl@val+1,w
  5507  04B8  0473               	iorwf	___xxtofl@val,w
  5508  04B9  1D03               	skipz
  5509  04BA  2CBC               	goto	u2481
  5510  04BB  2CBD               	goto	u2480
  5511  04BC                     u2481:
  5512  04BC  2CC6               	goto	l2937
  5513  04BD                     u2480:
  5514  04BD                     l2933:
  5515  04BD  3000               	movlw	0
  5516  04BE  00F6               	movwf	?___xxtofl+3
  5517  04BF  3000               	movlw	0
  5518  04C0  00F5               	movwf	?___xxtofl+2
  5519  04C1  3000               	movlw	0
  5520  04C2  00F4               	movwf	?___xxtofl+1
  5521  04C3  3000               	movlw	0
  5522  04C4  00F3               	movwf	?___xxtofl
  5523  04C5  2D3E               	goto	l1202
  5524  04C6                     l2937:
  5525  04C6  3096               	movlw	150
  5526  04C7  00A0               	movwf	??___xxtofl
  5527  04C8  0820               	movf	??___xxtofl,w
  5528  04C9  00A5               	movwf	___xxtofl@exp
  5529  04CA  2CD6               	goto	l2941
  5530  04CB                     l2939:
  5531  04CB  3001               	movlw	1
  5532  04CC  00A0               	movwf	??___xxtofl
  5533  04CD  0820               	movf	??___xxtofl,w
  5534  04CE  07A5               	addwf	___xxtofl@exp,f
  5535  04CF  3001               	movlw	1
  5536  04D0                     u2495:
  5537  04D0  36A9               	lsrf	___xxtofl@arg+3,f
  5538  04D1  0CA8               	rrf	___xxtofl@arg+2,f
  5539  04D2  0CA7               	rrf	___xxtofl@arg+1,f
  5540  04D3  0CA6               	rrf	___xxtofl@arg,f
  5541  04D4  0B89               	decfsz	9,f
  5542  04D5  2CD0               	goto	u2495
  5543  04D6                     l2941:
  5544  04D6  30FE               	movlw	254
  5545  04D7  0529               	andwf	___xxtofl@arg+3,w
  5546  04D8  1D03               	btfss	3,2
  5547  04D9  2CDB               	goto	u2501
  5548  04DA  2CDC               	goto	u2500
  5549  04DB                     u2501:
  5550  04DB  2CCB               	goto	l2939
  5551  04DC                     u2500:
  5552  04DC  2CF0               	goto	l1206
  5553  04DD                     l2943:
  5554  04DD  3001               	movlw	1
  5555  04DE  00A0               	movwf	??___xxtofl
  5556  04DF  0820               	movf	??___xxtofl,w
  5557  04E0  07A5               	addwf	___xxtofl@exp,f
  5558  04E1                     l2945:
  5559  04E1  3001               	movlw	1
  5560  04E2  07A6               	addwf	___xxtofl@arg,f
  5561  04E3  3000               	movlw	0
  5562  04E4  3DA7               	addwfc	___xxtofl@arg+1,f
  5563  04E5  3000               	movlw	0
  5564  04E6  3DA8               	addwfc	___xxtofl@arg+2,f
  5565  04E7  3000               	movlw	0
  5566  04E8  3DA9               	addwfc	___xxtofl@arg+3,f
  5567  04E9                     l2947:
  5568  04E9  3001               	movlw	1
  5569  04EA                     u2515:
  5570  04EA  36A9               	lsrf	___xxtofl@arg+3,f
  5571  04EB  0CA8               	rrf	___xxtofl@arg+2,f
  5572  04EC  0CA7               	rrf	___xxtofl@arg+1,f
  5573  04ED  0CA6               	rrf	___xxtofl@arg,f
  5574  04EE  0B89               	decfsz	9,f
  5575  04EF  2CEA               	goto	u2515
  5576  04F0                     l1206:
  5577  04F0  30FF               	movlw	255
  5578  04F1  0529               	andwf	___xxtofl@arg+3,w
  5579  04F2  1D03               	btfss	3,2
  5580  04F3  2CF5               	goto	u2521
  5581  04F4  2CF6               	goto	u2520
  5582  04F5                     u2521:
  5583  04F5  2CDD               	goto	l2943
  5584  04F6                     u2520:
  5585  04F6  2D00               	goto	l2951
  5586  04F7                     l2949:
  5587  04F7  3001               	movlw	1
  5588  04F8  02A5               	subwf	___xxtofl@exp,f
  5589  04F9  3001               	movlw	1
  5590  04FA                     u2535:
  5591  04FA  35A6               	lslf	___xxtofl@arg,f
  5592  04FB  0DA7               	rlf	___xxtofl@arg+1,f
  5593  04FC  0DA8               	rlf	___xxtofl@arg+2,f
  5594  04FD  0DA9               	rlf	___xxtofl@arg+3,f
  5595  04FE  0B89               	decfsz	9,f
  5596  04FF  2CFA               	goto	u2535
  5597  0500                     l2951:
  5598  0500  1BA8               	btfsc	___xxtofl@arg+2,7
  5599  0501  2D03               	goto	u2541
  5600  0502  2D04               	goto	u2540
  5601  0503                     u2541:
  5602  0503  2D0A               	goto	l1213
  5603  0504                     u2540:
  5604  0504                     l2953:
  5605  0504  3002               	movlw	2
  5606  0505  0225               	subwf	___xxtofl@exp,w
  5607  0506  1803               	skipnc
  5608  0507  2D09               	goto	u2551
  5609  0508  2D0A               	goto	u2550
  5610  0509                     u2551:
  5611  0509  2CF7               	goto	l2949
  5612  050A                     u2550:
  5613  050A                     l1213:
  5614  050A  1825               	btfsc	___xxtofl@exp,0
  5615  050B  2D0D               	goto	u2561
  5616  050C  2D0E               	goto	u2560
  5617  050D                     u2561:
  5618  050D  2D16               	goto	l1214
  5619  050E                     u2560:
  5620  050E                     l2955:
  5621  050E  30FF               	movlw	255
  5622  050F  05A6               	andwf	___xxtofl@arg,f
  5623  0510  30FF               	movlw	255
  5624  0511  05A7               	andwf	___xxtofl@arg+1,f
  5625  0512  307F               	movlw	127
  5626  0513  05A8               	andwf	___xxtofl@arg+2,f
  5627  0514  30FF               	movlw	255
  5628  0515  05A9               	andwf	___xxtofl@arg+3,f
  5629  0516                     l1214:
  5630  0516  1003               	clrc
  5631  0517  0CA5               	rrf	___xxtofl@exp,f
  5632  0518                     l2957:
  5633  0518  0825               	movf	___xxtofl@exp,w
  5634  0519  00A0               	movwf	??___xxtofl
  5635  051A  01A1               	clrf	??___xxtofl+1
  5636  051B  01A2               	clrf	??___xxtofl+2
  5637  051C  01A3               	clrf	??___xxtofl+3
  5638  051D  3018               	movlw	24
  5639  051E                     u2575:
  5640  051E  35A0               	lslf	??___xxtofl,f
  5641  051F  0DA1               	rlf	??___xxtofl+1,f
  5642  0520  0DA2               	rlf	??___xxtofl+2,f
  5643  0521  0DA3               	rlf	??___xxtofl+3,f
  5644  0522                     u2570:
  5645  0522  0B89               	decfsz	9,f
  5646  0523  2D1E               	goto	u2575
  5647  0524  0820               	movf	??___xxtofl,w
  5648  0525  04A6               	iorwf	___xxtofl@arg,f
  5649  0526  0821               	movf	??___xxtofl+1,w
  5650  0527  04A7               	iorwf	___xxtofl@arg+1,f
  5651  0528  0822               	movf	??___xxtofl+2,w
  5652  0529  04A8               	iorwf	___xxtofl@arg+2,f
  5653  052A  0823               	movf	??___xxtofl+3,w
  5654  052B  04A9               	iorwf	___xxtofl@arg+3,f
  5655  052C                     l2959:
  5656  052C  0824               	movf	___xxtofl@sign,w
  5657  052D  1903               	btfsc	3,2
  5658  052E  2D30               	goto	u2581
  5659  052F  2D31               	goto	u2580
  5660  0530                     u2581:
  5661  0530  2D36               	goto	l2965
  5662  0531                     u2580:
  5663  0531                     l2961:
  5664  0531  1FF6               	btfss	___xxtofl@val+3,7
  5665  0532  2D34               	goto	u2591
  5666  0533  2D35               	goto	u2590
  5667  0534                     u2591:
  5668  0534  2D36               	goto	l2965
  5669  0535                     u2590:
  5670  0535                     l2963:
  5671  0535  17A9               	bsf	___xxtofl@arg+3,7
  5672  0536                     l2965:
  5673  0536  0829               	movf	___xxtofl@arg+3,w
  5674  0537  00F6               	movwf	?___xxtofl+3
  5675  0538  0828               	movf	___xxtofl@arg+2,w
  5676  0539  00F5               	movwf	?___xxtofl+2
  5677  053A  0827               	movf	___xxtofl@arg+1,w
  5678  053B  00F4               	movwf	?___xxtofl+1
  5679  053C  0826               	movf	___xxtofl@arg,w
  5680  053D  00F3               	movwf	?___xxtofl
  5681  053E                     l1202:
  5682  053E  0008               	return
  5683  053F                     __end_of___xxtofl:
  5684                           
  5685                           	psect	text29
  5686  05D0                     __ptext29:	
  5687 ;; *************** function ___fltol *****************
  5688 ;; Defined at:
  5689 ;;		line 43 in file "C:\Program Files\Microchip\xc8\v2.32\pic\sources\c99\common\fltol.c"
  5690 ;; Parameters:    Size  Location     Type
  5691 ;;  f1              4   36[BANK0 ] unsigned char 
  5692 ;; Auto vars:     Size  Location     Type
  5693 ;;  exp1            1    8[COMMON] unsigned char 
  5694 ;;  sign1           1    7[COMMON] unsigned char 
  5695 ;; Return value:  Size  Location     Type
  5696 ;;                  4   36[BANK0 ] long 
  5697 ;; Registers used:
  5698 ;;		wreg, status,2, status,0
  5699 ;; Tracked objects:
  5700 ;;		On entry : 0/0
  5701 ;;		On exit  : 0/0
  5702 ;;		Unchanged: 0/0
  5703 ;; Data sizes:     COMMON   BANK0   BANK1   BANK2   BANK3   BANK4
  5704 ;;      Params:         0       4       0       0       0       0
  5705 ;;      Locals:         2       0       0       0       0       0
  5706 ;;      Temps:          0       5       0       0       0       0
  5707 ;;      Totals:         2       9       0       0       0       0
  5708 ;;Total ram usage:       11 bytes
  5709 ;; Hardware stack levels used: 1
  5710 ;; Hardware stack levels required when called: 4
  5711 ;; This function calls:
  5712 ;;		Nothing
  5713 ;; This function is called by:
  5714 ;;		_Ds_Conversor_ADC
  5715 ;; This function uses a non-reentrant model
  5716 ;;
  5717                           
  5718                           
  5719                           ;psect for function ___fltol
  5720  05D0                     ___fltol:
  5721  05D0                     l2701:	
  5722                           ;incstack = 0
  5723                           ; Regs used in ___fltol: [wreg+status,2+status,0]
  5724                           
  5725  05D0  1003               	clrc
  5726  05D1  0020               	movlb	0	; select bank0
  5727  05D2  0D46               	rlf	___fltol@f1+2,w
  5728  05D3  0D47               	rlf	___fltol@f1+3,w
  5729  05D4  00C8               	movwf	??___fltol
  5730  05D5  0848               	movf	??___fltol,w
  5731  05D6  00F8               	movwf	___fltol@exp1
  5732  05D7  0878               	movf	___fltol@exp1,w
  5733  05D8  1D03               	btfss	3,2
  5734  05D9  2DDB               	goto	u1971
  5735  05DA  2DDC               	goto	u1970
  5736  05DB                     u1971:
  5737  05DB  2DE5               	goto	l2707
  5738  05DC                     u1970:
  5739  05DC                     l2703:
  5740  05DC  3000               	movlw	0
  5741  05DD  00C7               	movwf	?___fltol+3
  5742  05DE  3000               	movlw	0
  5743  05DF  00C6               	movwf	?___fltol+2
  5744  05E0  3000               	movlw	0
  5745  05E1  00C5               	movwf	?___fltol+1
  5746  05E2  3000               	movlw	0
  5747  05E3  00C4               	movwf	?___fltol
  5748  05E4  2E44               	goto	l953
  5749  05E5                     l2707:
  5750  05E5  0844               	movf	___fltol@f1,w
  5751  05E6  00C8               	movwf	??___fltol
  5752  05E7  0845               	movf	___fltol@f1+1,w
  5753  05E8  00C9               	movwf	??___fltol+1
  5754  05E9  0846               	movf	___fltol@f1+2,w
  5755  05EA  00CA               	movwf	??___fltol+2
  5756  05EB  0847               	movf	___fltol@f1+3,w
  5757  05EC  00CB               	movwf	??___fltol+3
  5758  05ED  301F               	movlw	31
  5759  05EE                     u1985:
  5760  05EE  36CB               	lsrf	??___fltol+3,f
  5761  05EF  0CCA               	rrf	??___fltol+2,f
  5762  05F0  0CC9               	rrf	??___fltol+1,f
  5763  05F1  0CC8               	rrf	??___fltol,f
  5764  05F2                     u1980:
  5765  05F2  0B89               	decfsz	9,f
  5766  05F3  2DEE               	goto	u1985
  5767  05F4  0848               	movf	??___fltol,w
  5768  05F5  00CC               	movwf	??___fltol+4
  5769  05F6  084C               	movf	??___fltol+4,w
  5770  05F7  00F7               	movwf	___fltol@sign1
  5771  05F8                     l2709:
  5772  05F8  17C6               	bsf	___fltol@f1+2,7
  5773  05F9                     l2711:
  5774  05F9  30FF               	movlw	255
  5775  05FA  05C4               	andwf	___fltol@f1,f
  5776  05FB  30FF               	movlw	255
  5777  05FC  05C5               	andwf	___fltol@f1+1,f
  5778  05FD  30FF               	movlw	255
  5779  05FE  05C6               	andwf	___fltol@f1+2,f
  5780  05FF  3000               	movlw	0
  5781  0600  05C7               	andwf	___fltol@f1+3,f
  5782  0601                     l2713:
  5783  0601  3096               	movlw	150
  5784  0602  02F8               	subwf	___fltol@exp1,f
  5785  0603                     l2715:
  5786  0603  1FF8               	btfss	___fltol@exp1,7
  5787  0604  2E06               	goto	u1991
  5788  0605  2E07               	goto	u1990
  5789  0606                     u1991:
  5790  0606  2E1F               	goto	l2725
  5791  0607                     u1990:
  5792  0607                     l2717:
  5793  0607  0878               	movf	___fltol@exp1,w
  5794  0608  3A80               	xorlw	128
  5795  0609  3E97               	addlw	151
  5796  060A  1803               	skipnc
  5797  060B  2E0D               	goto	u2001
  5798  060C  2E0E               	goto	u2000
  5799  060D                     u2001:
  5800  060D  2E0F               	goto	l2723
  5801  060E                     u2000:
  5802  060E  2DDC               	goto	l2703
  5803  060F                     l2723:
  5804  060F  3001               	movlw	1
  5805  0610                     u2015:
  5806  0610  36C7               	lsrf	___fltol@f1+3,f
  5807  0611  0CC6               	rrf	___fltol@f1+2,f
  5808  0612  0CC5               	rrf	___fltol@f1+1,f
  5809  0613  0CC4               	rrf	___fltol@f1,f
  5810  0614  0B89               	decfsz	9,f
  5811  0615  2E10               	goto	u2015
  5812  0616  3001               	movlw	1
  5813  0617  00C8               	movwf	??___fltol
  5814  0618  0848               	movf	??___fltol,w
  5815  0619  07F8               	addwf	___fltol@exp1,f
  5816  061A  1D03               	btfss	3,2
  5817  061B  2E1D               	goto	u2021
  5818  061C  2E1E               	goto	u2020
  5819  061D                     u2021:
  5820  061D  2E0F               	goto	l2723
  5821  061E                     u2020:
  5822  061E  2E34               	goto	l2733
  5823  061F                     l2725:
  5824  061F  3020               	movlw	32
  5825  0620  0278               	subwf	___fltol@exp1,w
  5826  0621  1C03               	skipc
  5827  0622  2E24               	goto	u2031
  5828  0623  2E25               	goto	u2030
  5829  0624                     u2031:
  5830  0624  2E2F               	goto	l960
  5831  0625                     u2030:
  5832  0625  2DDC               	goto	l2703
  5833  0626                     l2731:
  5834  0626  3001               	movlw	1
  5835  0627                     u2045:
  5836  0627  35C4               	lslf	___fltol@f1,f
  5837  0628  0DC5               	rlf	___fltol@f1+1,f
  5838  0629  0DC6               	rlf	___fltol@f1+2,f
  5839  062A  0DC7               	rlf	___fltol@f1+3,f
  5840  062B  0B89               	decfsz	9,f
  5841  062C  2E27               	goto	u2045
  5842  062D  3001               	movlw	1
  5843  062E  02F8               	subwf	___fltol@exp1,f
  5844  062F                     l960:
  5845  062F  0878               	movf	___fltol@exp1,w
  5846  0630  1D03               	btfss	3,2
  5847  0631  2E33               	goto	u2051
  5848  0632  2E34               	goto	u2050
  5849  0633                     u2051:
  5850  0633  2E26               	goto	l2731
  5851  0634                     u2050:
  5852  0634                     l2733:
  5853  0634  0877               	movf	___fltol@sign1,w
  5854  0635  1903               	btfsc	3,2
  5855  0636  2E38               	goto	u2061
  5856  0637  2E39               	goto	u2060
  5857  0638                     u2061:
  5858  0638  2E44               	goto	l963
  5859  0639                     u2060:
  5860  0639                     l2735:
  5861  0639  09C4               	comf	___fltol@f1,f
  5862  063A  09C5               	comf	___fltol@f1+1,f
  5863  063B  09C6               	comf	___fltol@f1+2,f
  5864  063C  09C7               	comf	___fltol@f1+3,f
  5865  063D  0AC4               	incf	___fltol@f1,f
  5866  063E  1903               	skipnz
  5867  063F  0AC5               	incf	___fltol@f1+1,f
  5868  0640  1903               	skipnz
  5869  0641  0AC6               	incf	___fltol@f1+2,f
  5870  0642  1903               	skipnz
  5871  0643  0AC7               	incf	___fltol@f1+3,f
  5872  0644                     l963:
  5873  0644                     l953:
  5874  0644  0008               	return
  5875  0645                     __end_of___fltol:
  5876                           
  5877                           	psect	text30
  5878  003F                     __ptext30:	
  5879 ;; *************** function ___flmul *****************
  5880 ;; Defined at:
  5881 ;;		line 8 in file "C:\Program Files\Microchip\xc8\v2.32\pic\sources\c99\common\sprcmul.c"
  5882 ;; Parameters:    Size  Location     Type
  5883 ;;  b               4   10[BANK0 ] long 
  5884 ;;  a               4   14[BANK0 ] long 
  5885 ;; Auto vars:     Size  Location     Type
  5886 ;;  prod            4   30[BANK0 ] struct .
  5887 ;;  grs             4   25[BANK0 ] unsigned long 
  5888 ;;  temp            2   34[BANK0 ] struct .
  5889 ;;  bexp            1   29[BANK0 ] unsigned char 
  5890 ;;  aexp            1   24[BANK0 ] unsigned char 
  5891 ;;  sign            1   23[BANK0 ] unsigned char 
  5892 ;; Return value:  Size  Location     Type
  5893 ;;                  4   10[BANK0 ] unsigned char 
  5894 ;; Registers used:
  5895 ;;		wreg, status,2, status,0, pclath, cstack
  5896 ;; Tracked objects:
  5897 ;;		On entry : 0/0
  5898 ;;		On exit  : 0/0
  5899 ;;		Unchanged: 0/0
  5900 ;; Data sizes:     COMMON   BANK0   BANK1   BANK2   BANK3   BANK4
  5901 ;;      Params:         0       8       0       0       0       0
  5902 ;;      Locals:         0      13       0       0       0       0
  5903 ;;      Temps:          0       5       0       0       0       0
  5904 ;;      Totals:         0      26       0       0       0       0
  5905 ;;Total ram usage:       26 bytes
  5906 ;; Hardware stack levels used: 1
  5907 ;; Hardware stack levels required when called: 5
  5908 ;; This function calls:
  5909 ;;		__Umul8_16
  5910 ;; This function is called by:
  5911 ;;		_Ds_Conversor_ADC
  5912 ;; This function uses a non-reentrant model
  5913 ;;
  5914                           
  5915                           
  5916                           ;psect for function ___flmul
  5917  003F                     ___flmul:
  5918  003F                     l2785:	
  5919                           ;incstack = 0
  5920                           ; Regs used in ___flmul: [wreg+status,2+status,0+pclath+cstack]
  5921                           
  5922  003F  0020               	movlb	0	; select bank0
  5923  0040  082D               	movf	___flmul@b+3,w
  5924  0041  3980               	andlw	128
  5925  0042  00B2               	movwf	??___flmul
  5926  0043  0832               	movf	??___flmul,w
  5927  0044  00B7               	movwf	___flmul@sign
  5928  0045                     l2787:
  5929  0045  352D               	lslf	___flmul@b+3,w
  5930  0046  00B2               	movwf	??___flmul
  5931  0047  0832               	movf	??___flmul,w
  5932  0048  00BD               	movwf	___flmul@bexp
  5933  0049                     l2789:
  5934  0049  1FAC               	btfss	___flmul@b+2,7
  5935  004A  284C               	goto	u2201
  5936  004B  284D               	goto	u2200
  5937  004C                     u2201:
  5938  004C  284E               	goto	l2793
  5939  004D                     u2200:
  5940  004D                     l2791:
  5941  004D  143D               	bsf	___flmul@bexp,0
  5942  004E                     l2793:
  5943  004E  083D               	movf	___flmul@bexp,w
  5944  004F  1903               	btfsc	3,2
  5945  0050  2852               	goto	u2211
  5946  0051  2853               	goto	u2210
  5947  0052                     u2211:
  5948  0052  2862               	goto	l2801
  5949  0053                     u2210:
  5950  0053                     l2795:
  5951  0053  0A3D               	incf	___flmul@bexp,w
  5952  0054  1D03               	btfss	3,2
  5953  0055  2857               	goto	u2221
  5954  0056  2858               	goto	u2220
  5955  0057                     u2221:
  5956  0057  2860               	goto	l2799
  5957  0058                     u2220:
  5958  0058                     l2797:
  5959  0058  3000               	movlw	0
  5960  0059  00AD               	movwf	___flmul@b+3
  5961  005A  3000               	movlw	0
  5962  005B  00AC               	movwf	___flmul@b+2
  5963  005C  3000               	movlw	0
  5964  005D  00AB               	movwf	___flmul@b+1
  5965  005E  3000               	movlw	0
  5966  005F  00AA               	movwf	___flmul@b
  5967  0060                     l2799:
  5968  0060  17AC               	bsf	___flmul@b+2,7
  5969  0061  286A               	goto	l2803
  5970  0062                     l2801:
  5971  0062  3000               	movlw	0
  5972  0063  00AD               	movwf	___flmul@b+3
  5973  0064  3000               	movlw	0
  5974  0065  00AC               	movwf	___flmul@b+2
  5975  0066  3000               	movlw	0
  5976  0067  00AB               	movwf	___flmul@b+1
  5977  0068  3000               	movlw	0
  5978  0069  00AA               	movwf	___flmul@b
  5979  006A                     l2803:
  5980  006A  0831               	movf	___flmul@a+3,w
  5981  006B  3980               	andlw	128
  5982  006C  00B2               	movwf	??___flmul
  5983  006D  0832               	movf	??___flmul,w
  5984  006E  06B7               	xorwf	___flmul@sign,f
  5985  006F                     l2805:
  5986  006F  3531               	lslf	___flmul@a+3,w
  5987  0070  00B2               	movwf	??___flmul
  5988  0071  0832               	movf	??___flmul,w
  5989  0072  00B8               	movwf	___flmul@aexp
  5990  0073                     l2807:
  5991  0073  1FB0               	btfss	___flmul@a+2,7
  5992  0074  2876               	goto	u2231
  5993  0075  2877               	goto	u2230
  5994  0076                     u2231:
  5995  0076  2878               	goto	l2811
  5996  0077                     u2230:
  5997  0077                     l2809:
  5998  0077  1438               	bsf	___flmul@aexp,0
  5999  0078                     l2811:
  6000  0078  0838               	movf	___flmul@aexp,w
  6001  0079  1903               	btfsc	3,2
  6002  007A  287C               	goto	u2241
  6003  007B  287D               	goto	u2240
  6004  007C                     u2241:
  6005  007C  288C               	goto	l2819
  6006  007D                     u2240:
  6007  007D                     l2813:
  6008  007D  0A38               	incf	___flmul@aexp,w
  6009  007E  1D03               	btfss	3,2
  6010  007F  2881               	goto	u2251
  6011  0080  2882               	goto	u2250
  6012  0081                     u2251:
  6013  0081  288A               	goto	l2817
  6014  0082                     u2250:
  6015  0082                     l2815:
  6016  0082  3000               	movlw	0
  6017  0083  00B1               	movwf	___flmul@a+3
  6018  0084  3000               	movlw	0
  6019  0085  00B0               	movwf	___flmul@a+2
  6020  0086  3000               	movlw	0
  6021  0087  00AF               	movwf	___flmul@a+1
  6022  0088  3000               	movlw	0
  6023  0089  00AE               	movwf	___flmul@a
  6024  008A                     l2817:
  6025  008A  17B0               	bsf	___flmul@a+2,7
  6026  008B  2894               	goto	l2821
  6027  008C                     l2819:
  6028  008C  3000               	movlw	0
  6029  008D  00B1               	movwf	___flmul@a+3
  6030  008E  3000               	movlw	0
  6031  008F  00B0               	movwf	___flmul@a+2
  6032  0090  3000               	movlw	0
  6033  0091  00AF               	movwf	___flmul@a+1
  6034  0092  3000               	movlw	0
  6035  0093  00AE               	movwf	___flmul@a
  6036  0094                     l2821:
  6037  0094  0838               	movf	___flmul@aexp,w
  6038  0095  1903               	btfsc	3,2
  6039  0096  2898               	goto	u2261
  6040  0097  2899               	goto	u2260
  6041  0098                     u2261:
  6042  0098  289E               	goto	l2825
  6043  0099                     u2260:
  6044  0099                     l2823:
  6045  0099  083D               	movf	___flmul@bexp,w
  6046  009A  1D03               	btfss	3,2
  6047  009B  289D               	goto	u2271
  6048  009C  289E               	goto	u2270
  6049  009D                     u2271:
  6050  009D  28A7               	goto	l2829
  6051  009E                     u2270:
  6052  009E                     l2825:
  6053  009E  3000               	movlw	0
  6054  009F  00AD               	movwf	?___flmul+3
  6055  00A0  3000               	movlw	0
  6056  00A1  00AC               	movwf	?___flmul+2
  6057  00A2  3000               	movlw	0
  6058  00A3  00AB               	movwf	?___flmul+1
  6059  00A4  3000               	movlw	0
  6060  00A5  00AA               	movwf	?___flmul
  6061  00A6  2A95               	goto	l1156
  6062  00A7                     l2829:
  6063  00A7  082A               	movf	___flmul@b,w
  6064  00A8  00B2               	movwf	??___flmul
  6065  00A9  0832               	movf	??___flmul,w
  6066  00AA  00F3               	movwf	__Umul8_16@multiplicand
  6067  00AB  0830               	movf	___flmul@a+2,w
  6068  00AC  318F  27B6  3180   	fcall	__Umul8_16
  6069  00AF  0874               	movf	?__Umul8_16+1,w
  6070  00B0  0020               	movlb	0	; select bank0
  6071  00B1  00C3               	movwf	___flmul@temp+1
  6072  00B2  0873               	movf	?__Umul8_16,w
  6073  00B3  00C2               	movwf	___flmul@temp
  6074  00B4                     l2831:
  6075  00B4  0842               	movf	___flmul@temp,w
  6076  00B5  00B2               	movwf	??___flmul
  6077  00B6  01B3               	clrf	??___flmul+1
  6078  00B7  01B4               	clrf	??___flmul+2
  6079  00B8  01B5               	clrf	??___flmul+3
  6080  00B9  0835               	movf	??___flmul+3,w
  6081  00BA  00BC               	movwf	___flmul@grs+3
  6082  00BB  0834               	movf	??___flmul+2,w
  6083  00BC  00BB               	movwf	___flmul@grs+2
  6084  00BD  0833               	movf	??___flmul+1,w
  6085  00BE  00BA               	movwf	___flmul@grs+1
  6086  00BF  0832               	movf	??___flmul,w
  6087  00C0  00B9               	movwf	___flmul@grs
  6088  00C1                     l2833:
  6089  00C1  0843               	movf	___flmul@temp+1,w
  6090  00C2  00B2               	movwf	??___flmul
  6091  00C3  01B3               	clrf	??___flmul+1
  6092  00C4  01B4               	clrf	??___flmul+2
  6093  00C5  01B5               	clrf	??___flmul+3
  6094  00C6  0835               	movf	??___flmul+3,w
  6095  00C7  00C1               	movwf	___flmul@prod+3
  6096  00C8  0834               	movf	??___flmul+2,w
  6097  00C9  00C0               	movwf	___flmul@prod+2
  6098  00CA  0833               	movf	??___flmul+1,w
  6099  00CB  00BF               	movwf	___flmul@prod+1
  6100  00CC  0832               	movf	??___flmul,w
  6101  00CD  00BE               	movwf	___flmul@prod
  6102  00CE  082B               	movf	___flmul@b+1,w
  6103  00CF  00B2               	movwf	??___flmul
  6104  00D0  0832               	movf	??___flmul,w
  6105  00D1  00F3               	movwf	__Umul8_16@multiplicand
  6106  00D2  082F               	movf	___flmul@a+1,w
  6107  00D3  318F  27B6  3180   	fcall	__Umul8_16
  6108  00D6  0874               	movf	?__Umul8_16+1,w
  6109  00D7  0020               	movlb	0	; select bank0
  6110  00D8  00C3               	movwf	___flmul@temp+1
  6111  00D9  0873               	movf	?__Umul8_16,w
  6112  00DA  00C2               	movwf	___flmul@temp
  6113  00DB                     l2835:
  6114  00DB  0842               	movf	___flmul@temp,w
  6115  00DC  00B2               	movwf	??___flmul
  6116  00DD  01B3               	clrf	??___flmul+1
  6117  00DE  01B4               	clrf	??___flmul+2
  6118  00DF  01B5               	clrf	??___flmul+3
  6119  00E0  0832               	movf	??___flmul,w
  6120  00E1  07B9               	addwf	___flmul@grs,f
  6121  00E2  0833               	movf	??___flmul+1,w
  6122  00E3  3DBA               	addwfc	___flmul@grs+1,f
  6123  00E4  0834               	movf	??___flmul+2,w
  6124  00E5  3DBB               	addwfc	___flmul@grs+2,f
  6125  00E6  0835               	movf	??___flmul+3,w
  6126  00E7  3DBC               	addwfc	___flmul@grs+3,f
  6127  00E8                     l2837:
  6128  00E8  0843               	movf	___flmul@temp+1,w
  6129  00E9  00B2               	movwf	??___flmul
  6130  00EA  01B3               	clrf	??___flmul+1
  6131  00EB  01B4               	clrf	??___flmul+2
  6132  00EC  01B5               	clrf	??___flmul+3
  6133  00ED  0832               	movf	??___flmul,w
  6134  00EE  07BE               	addwf	___flmul@prod,f
  6135  00EF  0833               	movf	??___flmul+1,w
  6136  00F0  3DBF               	addwfc	___flmul@prod+1,f
  6137  00F1  0834               	movf	??___flmul+2,w
  6138  00F2  3DC0               	addwfc	___flmul@prod+2,f
  6139  00F3  0835               	movf	??___flmul+3,w
  6140  00F4  3DC1               	addwfc	___flmul@prod+3,f
  6141  00F5  082C               	movf	___flmul@b+2,w
  6142  00F6  00B2               	movwf	??___flmul
  6143  00F7  0832               	movf	??___flmul,w
  6144  00F8  00F3               	movwf	__Umul8_16@multiplicand
  6145  00F9  082E               	movf	___flmul@a,w
  6146  00FA  318F  27B6  3180   	fcall	__Umul8_16
  6147  00FD  0874               	movf	?__Umul8_16+1,w
  6148  00FE  0020               	movlb	0	; select bank0
  6149  00FF  00C3               	movwf	___flmul@temp+1
  6150  0100  0873               	movf	?__Umul8_16,w
  6151  0101  00C2               	movwf	___flmul@temp
  6152  0102                     l2839:
  6153  0102  0842               	movf	___flmul@temp,w
  6154  0103  00B2               	movwf	??___flmul
  6155  0104  01B3               	clrf	??___flmul+1
  6156  0105  01B4               	clrf	??___flmul+2
  6157  0106  01B5               	clrf	??___flmul+3
  6158  0107  0832               	movf	??___flmul,w
  6159  0108  07B9               	addwf	___flmul@grs,f
  6160  0109  0833               	movf	??___flmul+1,w
  6161  010A  3DBA               	addwfc	___flmul@grs+1,f
  6162  010B  0834               	movf	??___flmul+2,w
  6163  010C  3DBB               	addwfc	___flmul@grs+2,f
  6164  010D  0835               	movf	??___flmul+3,w
  6165  010E  3DBC               	addwfc	___flmul@grs+3,f
  6166  010F                     l2841:
  6167  010F  0843               	movf	___flmul@temp+1,w
  6168  0110  00B2               	movwf	??___flmul
  6169  0111  01B3               	clrf	??___flmul+1
  6170  0112  01B4               	clrf	??___flmul+2
  6171  0113  01B5               	clrf	??___flmul+3
  6172  0114  0832               	movf	??___flmul,w
  6173  0115  07BE               	addwf	___flmul@prod,f
  6174  0116  0833               	movf	??___flmul+1,w
  6175  0117  3DBF               	addwfc	___flmul@prod+1,f
  6176  0118  0834               	movf	??___flmul+2,w
  6177  0119  3DC0               	addwfc	___flmul@prod+2,f
  6178  011A  0835               	movf	??___flmul+3,w
  6179  011B  3DC1               	addwfc	___flmul@prod+3,f
  6180  011C                     l2843:
  6181  011C  3008               	movlw	8
  6182  011D                     u2285:
  6183  011D  35B9               	lslf	___flmul@grs,f
  6184  011E  0DBA               	rlf	___flmul@grs+1,f
  6185  011F  0DBB               	rlf	___flmul@grs+2,f
  6186  0120  0DBC               	rlf	___flmul@grs+3,f
  6187  0121  0B89               	decfsz	9,f
  6188  0122  291D               	goto	u2285
  6189  0123                     l2845:
  6190  0123  082B               	movf	___flmul@b+1,w
  6191  0124  00B2               	movwf	??___flmul
  6192  0125  0832               	movf	??___flmul,w
  6193  0126  00F3               	movwf	__Umul8_16@multiplicand
  6194  0127  082E               	movf	___flmul@a,w
  6195  0128  318F  27B6  3180   	fcall	__Umul8_16
  6196  012B  0874               	movf	?__Umul8_16+1,w
  6197  012C  0020               	movlb	0	; select bank0
  6198  012D  00C3               	movwf	___flmul@temp+1
  6199  012E  0873               	movf	?__Umul8_16,w
  6200  012F  00C2               	movwf	___flmul@temp
  6201  0130                     l2847:
  6202  0130  0842               	movf	___flmul@temp,w
  6203  0131  07B9               	addwf	___flmul@grs,f
  6204  0132  0843               	movf	___flmul@temp+1,w
  6205  0133  3DBA               	addwfc	___flmul@grs+1,f
  6206  0134  3000               	movlw	0
  6207  0135  3DBB               	addwfc	___flmul@grs+2,f
  6208  0136  3DBC               	addwfc	___flmul@grs+3,f
  6209  0137                     l2849:
  6210  0137  082A               	movf	___flmul@b,w
  6211  0138  00B2               	movwf	??___flmul
  6212  0139  0832               	movf	??___flmul,w
  6213  013A  00F3               	movwf	__Umul8_16@multiplicand
  6214  013B  082F               	movf	___flmul@a+1,w
  6215  013C  318F  27B6  3180   	fcall	__Umul8_16
  6216  013F  0874               	movf	?__Umul8_16+1,w
  6217  0140  0020               	movlb	0	; select bank0
  6218  0141  00C3               	movwf	___flmul@temp+1
  6219  0142  0873               	movf	?__Umul8_16,w
  6220  0143  00C2               	movwf	___flmul@temp
  6221  0144                     l2851:
  6222  0144  0842               	movf	___flmul@temp,w
  6223  0145  07B9               	addwf	___flmul@grs,f
  6224  0146  0843               	movf	___flmul@temp+1,w
  6225  0147  3DBA               	addwfc	___flmul@grs+1,f
  6226  0148  3000               	movlw	0
  6227  0149  3DBB               	addwfc	___flmul@grs+2,f
  6228  014A  3DBC               	addwfc	___flmul@grs+3,f
  6229  014B                     l2853:
  6230  014B  3008               	movlw	8
  6231  014C                     u2295:
  6232  014C  35B9               	lslf	___flmul@grs,f
  6233  014D  0DBA               	rlf	___flmul@grs+1,f
  6234  014E  0DBB               	rlf	___flmul@grs+2,f
  6235  014F  0DBC               	rlf	___flmul@grs+3,f
  6236  0150  0B89               	decfsz	9,f
  6237  0151  294C               	goto	u2295
  6238  0152  082A               	movf	___flmul@b,w
  6239  0153  00B2               	movwf	??___flmul
  6240  0154  0832               	movf	??___flmul,w
  6241  0155  00F3               	movwf	__Umul8_16@multiplicand
  6242  0156  082E               	movf	___flmul@a,w
  6243  0157  318F  27B6  3180   	fcall	__Umul8_16
  6244  015A  0874               	movf	?__Umul8_16+1,w
  6245  015B  0020               	movlb	0	; select bank0
  6246  015C  00C3               	movwf	___flmul@temp+1
  6247  015D  0873               	movf	?__Umul8_16,w
  6248  015E  00C2               	movwf	___flmul@temp
  6249  015F                     l2855:
  6250  015F  0842               	movf	___flmul@temp,w
  6251  0160  07B9               	addwf	___flmul@grs,f
  6252  0161  0843               	movf	___flmul@temp+1,w
  6253  0162  3DBA               	addwfc	___flmul@grs+1,f
  6254  0163  3000               	movlw	0
  6255  0164  3DBB               	addwfc	___flmul@grs+2,f
  6256  0165  3DBC               	addwfc	___flmul@grs+3,f
  6257  0166                     l2857:
  6258  0166  082B               	movf	___flmul@b+1,w
  6259  0167  00B2               	movwf	??___flmul
  6260  0168  0832               	movf	??___flmul,w
  6261  0169  00F3               	movwf	__Umul8_16@multiplicand
  6262  016A  0830               	movf	___flmul@a+2,w
  6263  016B  318F  27B6  3180   	fcall	__Umul8_16
  6264  016E  0874               	movf	?__Umul8_16+1,w
  6265  016F  0020               	movlb	0	; select bank0
  6266  0170  00C3               	movwf	___flmul@temp+1
  6267  0171  0873               	movf	?__Umul8_16,w
  6268  0172  00C2               	movwf	___flmul@temp
  6269  0173  0842               	movf	___flmul@temp,w
  6270  0174  07BE               	addwf	___flmul@prod,f
  6271  0175  0843               	movf	___flmul@temp+1,w
  6272  0176  3DBF               	addwfc	___flmul@prod+1,f
  6273  0177  3000               	movlw	0
  6274  0178  3DC0               	addwfc	___flmul@prod+2,f
  6275  0179  3DC1               	addwfc	___flmul@prod+3,f
  6276  017A                     l2859:
  6277  017A  082C               	movf	___flmul@b+2,w
  6278  017B  00B2               	movwf	??___flmul
  6279  017C  0832               	movf	??___flmul,w
  6280  017D  00F3               	movwf	__Umul8_16@multiplicand
  6281  017E  082F               	movf	___flmul@a+1,w
  6282  017F  318F  27B6  3180   	fcall	__Umul8_16
  6283  0182  0874               	movf	?__Umul8_16+1,w
  6284  0183  0020               	movlb	0	; select bank0
  6285  0184  00C3               	movwf	___flmul@temp+1
  6286  0185  0873               	movf	?__Umul8_16,w
  6287  0186  00C2               	movwf	___flmul@temp
  6288  0187                     l2861:
  6289  0187  0842               	movf	___flmul@temp,w
  6290  0188  07BE               	addwf	___flmul@prod,f
  6291  0189  0843               	movf	___flmul@temp+1,w
  6292  018A  3DBF               	addwfc	___flmul@prod+1,f
  6293  018B  3000               	movlw	0
  6294  018C  3DC0               	addwfc	___flmul@prod+2,f
  6295  018D  3DC1               	addwfc	___flmul@prod+3,f
  6296  018E  082C               	movf	___flmul@b+2,w
  6297  018F  00B2               	movwf	??___flmul
  6298  0190  0832               	movf	??___flmul,w
  6299  0191  00F3               	movwf	__Umul8_16@multiplicand
  6300  0192  0830               	movf	___flmul@a+2,w
  6301  0193  318F  27B6  3180   	fcall	__Umul8_16
  6302  0196  0874               	movf	?__Umul8_16+1,w
  6303  0197  0020               	movlb	0	; select bank0
  6304  0198  00C3               	movwf	___flmul@temp+1
  6305  0199  0873               	movf	?__Umul8_16,w
  6306  019A  00C2               	movwf	___flmul@temp
  6307  019B                     l2863:
  6308  019B  0842               	movf	___flmul@temp,w
  6309  019C  00B2               	movwf	??___flmul
  6310  019D  0843               	movf	___flmul@temp+1,w
  6311  019E  00B3               	movwf	??___flmul+1
  6312  019F  01B4               	clrf	??___flmul+2
  6313  01A0  01B5               	clrf	??___flmul+3
  6314  01A1  3008               	movlw	8
  6315  01A2                     u2305:
  6316  01A2  35B2               	lslf	??___flmul,f
  6317  01A3  0DB3               	rlf	??___flmul+1,f
  6318  01A4  0DB4               	rlf	??___flmul+2,f
  6319  01A5  0DB5               	rlf	??___flmul+3,f
  6320  01A6                     u2300:
  6321  01A6  0B89               	decfsz	9,f
  6322  01A7  29A2               	goto	u2305
  6323  01A8  0832               	movf	??___flmul,w
  6324  01A9  07BE               	addwf	___flmul@prod,f
  6325  01AA  0833               	movf	??___flmul+1,w
  6326  01AB  3DBF               	addwfc	___flmul@prod+1,f
  6327  01AC  0834               	movf	??___flmul+2,w
  6328  01AD  3DC0               	addwfc	___flmul@prod+2,f
  6329  01AE  0835               	movf	??___flmul+3,w
  6330  01AF  3DC1               	addwfc	___flmul@prod+3,f
  6331  01B0                     l2865:
  6332  01B0  0839               	movf	___flmul@grs,w
  6333  01B1  00B2               	movwf	??___flmul
  6334  01B2  083A               	movf	___flmul@grs+1,w
  6335  01B3  00B3               	movwf	??___flmul+1
  6336  01B4  083B               	movf	___flmul@grs+2,w
  6337  01B5  00B4               	movwf	??___flmul+2
  6338  01B6  083C               	movf	___flmul@grs+3,w
  6339  01B7  00B5               	movwf	??___flmul+3
  6340  01B8  3018               	movlw	24
  6341  01B9                     u2315:
  6342  01B9  36B5               	lsrf	??___flmul+3,f
  6343  01BA  0CB4               	rrf	??___flmul+2,f
  6344  01BB  0CB3               	rrf	??___flmul+1,f
  6345  01BC  0CB2               	rrf	??___flmul,f
  6346  01BD                     u2310:
  6347  01BD  0B89               	decfsz	9,f
  6348  01BE  29B9               	goto	u2315
  6349  01BF  0832               	movf	??___flmul,w
  6350  01C0  07BE               	addwf	___flmul@prod,f
  6351  01C1  0833               	movf	??___flmul+1,w
  6352  01C2  3DBF               	addwfc	___flmul@prod+1,f
  6353  01C3  0834               	movf	??___flmul+2,w
  6354  01C4  3DC0               	addwfc	___flmul@prod+2,f
  6355  01C5  0835               	movf	??___flmul+3,w
  6356  01C6  3DC1               	addwfc	___flmul@prod+3,f
  6357  01C7                     l2867:
  6358  01C7  3008               	movlw	8
  6359  01C8                     u2325:
  6360  01C8  35B9               	lslf	___flmul@grs,f
  6361  01C9  0DBA               	rlf	___flmul@grs+1,f
  6362  01CA  0DBB               	rlf	___flmul@grs+2,f
  6363  01CB  0DBC               	rlf	___flmul@grs+3,f
  6364  01CC  0B89               	decfsz	9,f
  6365  01CD  29C8               	goto	u2325
  6366  01CE                     l2869:
  6367  01CE  083D               	movf	___flmul@bexp,w
  6368  01CF  0738               	addwf	___flmul@aexp,w
  6369  01D0  00B2               	movwf	??___flmul
  6370  01D1  01B3               	clrf	??___flmul+1
  6371  01D2  0DB3               	rlf	??___flmul+1,f
  6372  01D3  0832               	movf	??___flmul,w
  6373  01D4  3E82               	addlw	130
  6374  01D5  00C2               	movwf	___flmul@temp
  6375  01D6  30FF               	movlw	255
  6376  01D7  3D33               	addwfc	??___flmul+1,w
  6377  01D8  00C3               	movwf	___flmul@temp+1
  6378  01D9  29F1               	goto	l2881
  6379  01DA                     l2871:
  6380  01DA  3001               	movlw	1
  6381  01DB                     u2335:
  6382  01DB  35BE               	lslf	___flmul@prod,f
  6383  01DC  0DBF               	rlf	___flmul@prod+1,f
  6384  01DD  0DC0               	rlf	___flmul@prod+2,f
  6385  01DE  0DC1               	rlf	___flmul@prod+3,f
  6386  01DF  0B89               	decfsz	9,f
  6387  01E0  29DB               	goto	u2335
  6388  01E1                     l2873:
  6389  01E1  1FBC               	btfss	___flmul@grs+3,7
  6390  01E2  29E4               	goto	u2341
  6391  01E3  29E5               	goto	u2340
  6392  01E4                     u2341:
  6393  01E4  29E6               	goto	l2877
  6394  01E5                     u2340:
  6395  01E5                     l2875:
  6396  01E5  143E               	bsf	___flmul@prod,0
  6397  01E6                     l2877:
  6398  01E6  3001               	movlw	1
  6399  01E7                     u2355:
  6400  01E7  35B9               	lslf	___flmul@grs,f
  6401  01E8  0DBA               	rlf	___flmul@grs+1,f
  6402  01E9  0DBB               	rlf	___flmul@grs+2,f
  6403  01EA  0DBC               	rlf	___flmul@grs+3,f
  6404  01EB  0B89               	decfsz	9,f
  6405  01EC  29E7               	goto	u2355
  6406  01ED                     l2879:
  6407  01ED  30FF               	movlw	255
  6408  01EE  07C2               	addwf	___flmul@temp,f
  6409  01EF  30FF               	movlw	255
  6410  01F0  3DC3               	addwfc	___flmul@temp+1,f
  6411  01F1                     l2881:
  6412  01F1  1FC0               	btfss	___flmul@prod+2,7
  6413  01F2  29F4               	goto	u2361
  6414  01F3  29F5               	goto	u2360
  6415  01F4                     u2361:
  6416  01F4  29DA               	goto	l2871
  6417  01F5                     u2360:
  6418  01F5                     l2883:
  6419  01F5  01B8               	clrf	___flmul@aexp
  6420  01F6                     l2885:
  6421  01F6  1FBC               	btfss	___flmul@grs+3,7
  6422  01F7  29F9               	goto	u2371
  6423  01F8  29FA               	goto	u2370
  6424  01F9                     u2371:
  6425  01F9  2A16               	goto	l2893
  6426  01FA                     u2370:
  6427  01FA                     l2887:
  6428  01FA  30FF               	movlw	255
  6429  01FB  0539               	andwf	___flmul@grs,w
  6430  01FC  00B2               	movwf	??___flmul
  6431  01FD  30FF               	movlw	255
  6432  01FE  053A               	andwf	___flmul@grs+1,w
  6433  01FF  00B3               	movwf	??___flmul+1
  6434  0200  30FF               	movlw	255
  6435  0201  053B               	andwf	___flmul@grs+2,w
  6436  0202  00B4               	movwf	??___flmul+2
  6437  0203  307F               	movlw	127
  6438  0204  053C               	andwf	___flmul@grs+3,w
  6439  0205  00B5               	movwf	??___flmul+3
  6440  0206  0835               	movf	??___flmul+3,w
  6441  0207  0434               	iorwf	??___flmul+2,w
  6442  0208  0433               	iorwf	??___flmul+1,w
  6443  0209  0432               	iorwf	??___flmul,w
  6444  020A  1903               	skipnz
  6445  020B  2A0D               	goto	u2381
  6446  020C  2A0E               	goto	u2380
  6447  020D                     u2381:
  6448  020D  2A11               	goto	l1162
  6449  020E                     u2380:
  6450  020E                     l2889:
  6451  020E  01B8               	clrf	___flmul@aexp
  6452  020F  0AB8               	incf	___flmul@aexp,f
  6453  0210  2A16               	goto	l2893
  6454  0211                     l1162:
  6455  0211  1C3E               	btfss	___flmul@prod,0
  6456  0212  2A14               	goto	u2391
  6457  0213  2A15               	goto	u2390
  6458  0214                     u2391:
  6459  0214  2A16               	goto	l2893
  6460  0215                     u2390:
  6461  0215  2A0E               	goto	l2889
  6462  0216                     l2893:
  6463  0216  0838               	movf	___flmul@aexp,w
  6464  0217  1903               	btfsc	3,2
  6465  0218  2A1A               	goto	u2401
  6466  0219  2A1B               	goto	u2400
  6467  021A                     u2401:
  6468  021A  2A43               	goto	l2903
  6469  021B                     u2400:
  6470  021B                     l2895:
  6471  021B  3001               	movlw	1
  6472  021C  07BE               	addwf	___flmul@prod,f
  6473  021D  3000               	movlw	0
  6474  021E  3DBF               	addwfc	___flmul@prod+1,f
  6475  021F  3000               	movlw	0
  6476  0220  3DC0               	addwfc	___flmul@prod+2,f
  6477  0221  3000               	movlw	0
  6478  0222  3DC1               	addwfc	___flmul@prod+3,f
  6479  0223                     l2897:
  6480  0223  1C41               	btfss	___flmul@prod+3,0
  6481  0224  2A26               	goto	u2411
  6482  0225  2A27               	goto	u2410
  6483  0226                     u2411:
  6484  0226  2A43               	goto	l2903
  6485  0227                     u2410:
  6486  0227                     l2899:
  6487  0227  083E               	movf	___flmul@prod,w
  6488  0228  00B2               	movwf	??___flmul
  6489  0229  083F               	movf	___flmul@prod+1,w
  6490  022A  00B3               	movwf	??___flmul+1
  6491  022B  0840               	movf	___flmul@prod+2,w
  6492  022C  00B4               	movwf	??___flmul+2
  6493  022D  0841               	movf	___flmul@prod+3,w
  6494  022E  00B5               	movwf	??___flmul+3
  6495  022F  3001               	movlw	1
  6496  0230  00B6               	movwf	??___flmul+4
  6497  0231                     u2425:
  6498  0231  37B5               	asrf	??___flmul+3,f
  6499  0232  0CB4               	rrf	??___flmul+2,f
  6500  0233  0CB3               	rrf	??___flmul+1,f
  6501  0234  0CB2               	rrf	??___flmul,f
  6502  0235                     u2420:
  6503  0235  0BB6               	decfsz	??___flmul+4,f
  6504  0236  2A31               	goto	u2425
  6505  0237  0835               	movf	??___flmul+3,w
  6506  0238  00C1               	movwf	___flmul@prod+3
  6507  0239  0834               	movf	??___flmul+2,w
  6508  023A  00C0               	movwf	___flmul@prod+2
  6509  023B  0833               	movf	??___flmul+1,w
  6510  023C  00BF               	movwf	___flmul@prod+1
  6511  023D  0832               	movf	??___flmul,w
  6512  023E  00BE               	movwf	___flmul@prod
  6513  023F                     l2901:
  6514  023F  3001               	movlw	1
  6515  0240  07C2               	addwf	___flmul@temp,f
  6516  0241  3000               	movlw	0
  6517  0242  3DC3               	addwfc	___flmul@temp+1,f
  6518  0243                     l2903:
  6519  0243  0843               	movf	___flmul@temp+1,w
  6520  0244  3A80               	xorlw	128
  6521  0245  00B2               	movwf	??___flmul
  6522  0246  3080               	movlw	128
  6523  0247  0232               	subwf	??___flmul,w
  6524  0248  1D03               	skipz
  6525  0249  2A4C               	goto	u2435
  6526  024A  30FF               	movlw	255
  6527  024B  0242               	subwf	___flmul@temp,w
  6528  024C                     u2435:
  6529  024C  1C03               	skipc
  6530  024D  2A4F               	goto	u2431
  6531  024E  2A50               	goto	u2430
  6532  024F                     u2431:
  6533  024F  2A5A               	goto	l2907
  6534  0250                     u2430:
  6535  0250                     l2905:
  6536  0250  307F               	movlw	127
  6537  0251  0020               	movlb	0	; select bank0
  6538  0252  00C1               	movwf	___flmul@prod+3
  6539  0253  3080               	movlw	128
  6540  0254  00C0               	movwf	___flmul@prod+2
  6541  0255  3000               	movlw	0
  6542  0256  00BF               	movwf	___flmul@prod+1
  6543  0257  3000               	movlw	0
  6544  0258  00BE               	movwf	___flmul@prod
  6545  0259  2A89               	goto	l1168
  6546  025A                     l2907:
  6547  025A  0020               	movlb	0	; select bank0
  6548  025B  0843               	movf	___flmul@temp+1,w
  6549  025C  3A80               	xorlw	128
  6550  025D  00B2               	movwf	??___flmul
  6551  025E  3080               	movlw	128
  6552  025F  0232               	subwf	??___flmul,w
  6553  0260  1D03               	skipz
  6554  0261  2A64               	goto	u2445
  6555  0262  3001               	movlw	1
  6556  0263  0242               	subwf	___flmul@temp,w
  6557  0264                     u2445:
  6558  0264  1803               	skipnc
  6559  0265  2A67               	goto	u2441
  6560  0266  2A68               	goto	u2440
  6561  0267                     u2441:
  6562  0267  2A73               	goto	l2913
  6563  0268                     u2440:
  6564  0268                     l2909:
  6565  0268  3000               	movlw	0
  6566  0269  0020               	movlb	0	; select bank0
  6567  026A  00C1               	movwf	___flmul@prod+3
  6568  026B  3000               	movlw	0
  6569  026C  00C0               	movwf	___flmul@prod+2
  6570  026D  3000               	movlw	0
  6571  026E  00BF               	movwf	___flmul@prod+1
  6572  026F  3000               	movlw	0
  6573  0270  00BE               	movwf	___flmul@prod
  6574  0271                     l2911:
  6575  0271  01B7               	clrf	___flmul@sign
  6576  0272  2A89               	goto	l1168
  6577  0273                     l2913:
  6578  0273  0020               	movlb	0	; select bank0
  6579  0274  0842               	movf	___flmul@temp,w
  6580  0275  00B2               	movwf	??___flmul
  6581  0276  0832               	movf	??___flmul,w
  6582  0277  00BD               	movwf	___flmul@bexp
  6583  0278  30FF               	movlw	255
  6584  0279  05BE               	andwf	___flmul@prod,f
  6585  027A  30FF               	movlw	255
  6586  027B  05BF               	andwf	___flmul@prod+1,f
  6587  027C  307F               	movlw	127
  6588  027D  05C0               	andwf	___flmul@prod+2,f
  6589  027E  3000               	movlw	0
  6590  027F  05C1               	andwf	___flmul@prod+3,f
  6591  0280                     l2915:
  6592  0280  1C3D               	btfss	___flmul@bexp,0
  6593  0281  2A83               	goto	u2451
  6594  0282  2A84               	goto	u2450
  6595  0283                     u2451:
  6596  0283  2A85               	goto	l2919
  6597  0284                     u2450:
  6598  0284                     l2917:
  6599  0284  17C0               	bsf	___flmul@prod+2,7
  6600  0285                     l2919:
  6601  0285  363D               	lsrf	___flmul@bexp,w
  6602  0286  00B2               	movwf	??___flmul
  6603  0287  0832               	movf	??___flmul,w
  6604  0288  00C1               	movwf	___flmul@prod+3
  6605  0289                     l1168:
  6606  0289  0837               	movf	___flmul@sign,w
  6607  028A  00B2               	movwf	??___flmul
  6608  028B  0832               	movf	??___flmul,w
  6609  028C  04C1               	iorwf	___flmul@prod+3,f
  6610  028D                     l2921:
  6611  028D  0841               	movf	___flmul@prod+3,w
  6612  028E  00AD               	movwf	?___flmul+3
  6613  028F  0840               	movf	___flmul@prod+2,w
  6614  0290  00AC               	movwf	?___flmul+2
  6615  0291  083F               	movf	___flmul@prod+1,w
  6616  0292  00AB               	movwf	?___flmul+1
  6617  0293  083E               	movf	___flmul@prod,w
  6618  0294  00AA               	movwf	?___flmul
  6619  0295                     l1156:
  6620  0295  0008               	return
  6621  0296                     __end_of___flmul:
  6622                           
  6623                           	psect	text31
  6624  0FB6                     __ptext31:	
  6625 ;; *************** function __Umul8_16 *****************
  6626 ;; Defined at:
  6627 ;;		line 4 in file "C:\Program Files\Microchip\xc8\v2.32\pic\sources\c99\common\Umul8_16.c"
  6628 ;; Parameters:    Size  Location     Type
  6629 ;;  multiplier      1    wreg     unsigned char 
  6630 ;;  multiplicand    1    3[COMMON] unsigned char 
  6631 ;; Auto vars:     Size  Location     Type
  6632 ;;  multiplier      1    4[BANK0 ] unsigned char 
  6633 ;;  word_mpld       2    2[BANK0 ] unsigned int 
  6634 ;;  product         2    0[BANK0 ] unsigned int 
  6635 ;; Return value:  Size  Location     Type
  6636 ;;                  2    3[COMMON] unsigned int 
  6637 ;; Registers used:
  6638 ;;		wreg, status,2, status,0
  6639 ;; Tracked objects:
  6640 ;;		On entry : 0/0
  6641 ;;		On exit  : 0/0
  6642 ;;		Unchanged: 0/0
  6643 ;; Data sizes:     COMMON   BANK0   BANK1   BANK2   BANK3   BANK4
  6644 ;;      Params:         2       0       0       0       0       0
  6645 ;;      Locals:         0       5       0       0       0       0
  6646 ;;      Temps:          2       0       0       0       0       0
  6647 ;;      Totals:         4       5       0       0       0       0
  6648 ;;Total ram usage:        9 bytes
  6649 ;; Hardware stack levels used: 1
  6650 ;; Hardware stack levels required when called: 4
  6651 ;; This function calls:
  6652 ;;		Nothing
  6653 ;; This function is called by:
  6654 ;;		___flmul
  6655 ;; This function uses a non-reentrant model
  6656 ;;
  6657                           
  6658                           
  6659                           ;psect for function __Umul8_16
  6660  0FB6                     __Umul8_16:
  6661                           
  6662                           ;incstack = 0
  6663                           ; Regs used in __Umul8_16: [wreg+status,2+status,0]
  6664                           ;__Umul8_16@multiplier stored from wreg
  6665  0FB6  0020               	movlb	0	; select bank0
  6666  0FB7  00A4               	movwf	__Umul8_16@multiplier
  6667  0FB8                     l2619:
  6668  0FB8  01A0               	clrf	__Umul8_16@product
  6669  0FB9  01A1               	clrf	__Umul8_16@product+1
  6670  0FBA                     l2621:
  6671  0FBA  0873               	movf	__Umul8_16@multiplicand,w
  6672  0FBB  00F5               	movwf	??__Umul8_16
  6673  0FBC  01F6               	clrf	??__Umul8_16+1
  6674  0FBD  0875               	movf	??__Umul8_16,w
  6675  0FBE  00A2               	movwf	__Umul8_16@word_mpld
  6676  0FBF  0876               	movf	??__Umul8_16+1,w
  6677  0FC0  00A3               	movwf	__Umul8_16@word_mpld+1
  6678  0FC1                     l2623:
  6679  0FC1  1C24               	btfss	__Umul8_16@multiplier,0
  6680  0FC2  2FC4               	goto	u1901
  6681  0FC3  2FC5               	goto	u1900
  6682  0FC4                     u1901:
  6683  0FC4  2FC9               	goto	l1175
  6684  0FC5                     u1900:
  6685  0FC5                     l2625:
  6686  0FC5  0822               	movf	__Umul8_16@word_mpld,w
  6687  0FC6  07A0               	addwf	__Umul8_16@product,f
  6688  0FC7  0823               	movf	__Umul8_16@word_mpld+1,w
  6689  0FC8  3DA1               	addwfc	__Umul8_16@product+1,f
  6690  0FC9                     l1175:
  6691  0FC9  3001               	movlw	1
  6692  0FCA                     u1915:
  6693  0FCA  35A2               	lslf	__Umul8_16@word_mpld,f
  6694  0FCB  0DA3               	rlf	__Umul8_16@word_mpld+1,f
  6695  0FCC  0B89               	decfsz	9,f
  6696  0FCD  2FCA               	goto	u1915
  6697  0FCE  1003               	clrc
  6698  0FCF  0CA4               	rrf	__Umul8_16@multiplier,f
  6699  0FD0                     l2627:
  6700  0FD0  0824               	movf	__Umul8_16@multiplier,w
  6701  0FD1  1D03               	btfss	3,2
  6702  0FD2  2FD4               	goto	u1921
  6703  0FD3  2FD5               	goto	u1920
  6704  0FD4                     u1921:
  6705  0FD4  2FC1               	goto	l2623
  6706  0FD5                     u1920:
  6707  0FD5                     l2629:
  6708  0FD5  0821               	movf	__Umul8_16@product+1,w
  6709  0FD6  00F4               	movwf	?__Umul8_16+1
  6710  0FD7  0820               	movf	__Umul8_16@product,w
  6711  0FD8  00F3               	movwf	?__Umul8_16
  6712  0FD9                     l1177:
  6713  0FD9  0008               	return
  6714  0FDA                     __end_of__Umul8_16:
  6715                           
  6716                           	psect	text32
  6717  0EA5                     __ptext32:	
  6718 ;; *************** function _ADC_StartConversion *****************
  6719 ;; Defined at:
  6720 ;;		line 98 in file "mcc_generated_files/adc.c"
  6721 ;; Parameters:    Size  Location     Type
  6722 ;;		None
  6723 ;; Auto vars:     Size  Location     Type
  6724 ;;		None
  6725 ;; Return value:  Size  Location     Type
  6726 ;;                  1    wreg      void 
  6727 ;; Registers used:
  6728 ;;		None
  6729 ;; Tracked objects:
  6730 ;;		On entry : 0/0
  6731 ;;		On exit  : 0/0
  6732 ;;		Unchanged: 0/0
  6733 ;; Data sizes:     COMMON   BANK0   BANK1   BANK2   BANK3   BANK4
  6734 ;;      Params:         0       0       0       0       0       0
  6735 ;;      Locals:         0       0       0       0       0       0
  6736 ;;      Temps:          0       0       0       0       0       0
  6737 ;;      Totals:         0       0       0       0       0       0
  6738 ;;Total ram usage:        0 bytes
  6739 ;; Hardware stack levels used: 1
  6740 ;; Hardware stack levels required when called: 4
  6741 ;; This function calls:
  6742 ;;		Nothing
  6743 ;; This function is called by:
  6744 ;;		_main
  6745 ;; This function uses a non-reentrant model
  6746 ;;
  6747                           
  6748                           
  6749                           ;psect for function _ADC_StartConversion
  6750  0EA5                     _ADC_StartConversion:
  6751  0EA5                     l2987:	
  6752                           ;incstack = 0
  6753                           ; Regs used in _ADC_StartConversion: []
  6754                           
  6755                           
  6756                           ;mcc_generated_files/adc.c: 101:     ADCON0bits.GO_nDONE = 1;
  6757  0EA5  0021               	movlb	1	; select bank1
  6758  0EA6  149D               	bsf	29,1	;volatile
  6759  0EA7                     l193:
  6760  0EA7  0008               	return
  6761  0EA8                     __end_of_ADC_StartConversion:
  6762                           
  6763                           	psect	intentry
  6764  0004                     __pintentry:	
  6765 ;; *************** function _INTERRUPT_InterruptManager *****************
  6766 ;; Defined at:
  6767 ;;		line 52 in file "mcc_generated_files/interrupt_manager.c"
  6768 ;; Parameters:    Size  Location     Type
  6769 ;;		None
  6770 ;; Auto vars:     Size  Location     Type
  6771 ;;		None
  6772 ;; Return value:  Size  Location     Type
  6773 ;;                  1    wreg      void 
  6774 ;; Registers used:
  6775 ;;		wreg, status,2, status,0, pclath, cstack
  6776 ;; Tracked objects:
  6777 ;;		On entry : 0/0
  6778 ;;		On exit  : 0/0
  6779 ;;		Unchanged: 0/0
  6780 ;; Data sizes:     COMMON   BANK0   BANK1   BANK2   BANK3   BANK4
  6781 ;;      Params:         0       0       0       0       0       0
  6782 ;;      Locals:         0       0       0       0       0       0
  6783 ;;      Temps:          0       0       0       0       0       0
  6784 ;;      Totals:         0       0       0       0       0       0
  6785 ;;Total ram usage:        0 bytes
  6786 ;; Hardware stack levels used: 1
  6787 ;; Hardware stack levels required when called: 3
  6788 ;; This function calls:
  6789 ;;		_ADC_ISR
  6790 ;;		_TMR6_ISR
  6791 ;; This function is called by:
  6792 ;;		Interrupt level 1
  6793 ;; This function uses a non-reentrant model
  6794 ;;
  6795                           
  6796  0004                     _INTERRUPT_InterruptManager:
  6797                           
  6798                           ;incstack = 0
  6799  0004  147E               	bsf	int$flags,0	;set compiler interrupt flag (level 1)
  6800                           
  6801                           ; Regs used in _INTERRUPT_InterruptManager: [wreg+status,2+status,0+pclath+cstack]
  6802  0005  3180               	pagesel	$
  6803  0006                     i1l2557:
  6804                           
  6805                           ;mcc_generated_files/interrupt_manager.c: 55:     if(INTCONbits.PEIE == 1)
  6806  0006  1F0B               	btfss	11,6	;volatile
  6807  0007  2809               	goto	u185_21
  6808  0008  280A               	goto	u185_20
  6809  0009                     u185_21:
  6810  0009  2826               	goto	i1l609
  6811  000A                     u185_20:
  6812  000A                     i1l2559:
  6813                           
  6814                           ;mcc_generated_files/interrupt_manager.c: 56:     {;mcc_generated_files/interrupt_manage
      +                          r.c: 57:         if(PIE1bits.ADIE == 1 && PIR1bits.ADIF == 1)
  6815  000A  0021               	movlb	1	; select bank1
  6816  000B  1F11               	btfss	17,6	;volatile
  6817  000C  280E               	goto	u186_21
  6818  000D  280F               	goto	u186_20
  6819  000E                     u186_21:
  6820  000E  2818               	goto	i1l604
  6821  000F                     u186_20:
  6822  000F                     i1l2561:
  6823  000F  0020               	movlb	0	; select bank0
  6824  0010  1F11               	btfss	17,6	;volatile
  6825  0011  2813               	goto	u187_21
  6826  0012  2814               	goto	u187_20
  6827  0013                     u187_21:
  6828  0013  2818               	goto	i1l604
  6829  0014                     u187_20:
  6830  0014                     i1l2563:
  6831                           
  6832                           ;mcc_generated_files/interrupt_manager.c: 58:         {;mcc_generated_files/interrupt_ma
      +                          nager.c: 59:             ADC_ISR();
  6833  0014  318F  270D  3180   	fcall	_ADC_ISR
  6834                           
  6835                           ;mcc_generated_files/interrupt_manager.c: 60:         }
  6836  0017  2826               	goto	i1l609
  6837  0018                     i1l604:	
  6838                           ;mcc_generated_files/interrupt_manager.c: 61:         else if(PIE3bits.TMR6IE == 1 && PI
      +                          R3bits.TMR6IF == 1)
  6839                           
  6840  0018  0021               	movlb	1	; select bank1
  6841  0019  1D93               	btfss	19,3	;volatile
  6842  001A  281C               	goto	u188_21
  6843  001B  281D               	goto	u188_20
  6844  001C                     u188_21:
  6845  001C  2826               	goto	i1l605
  6846  001D                     u188_20:
  6847  001D                     i1l2565:
  6848  001D  0020               	movlb	0	; select bank0
  6849  001E  1D93               	btfss	19,3	;volatile
  6850  001F  2821               	goto	u189_21
  6851  0020  2822               	goto	u189_20
  6852  0021                     u189_21:
  6853  0021  2826               	goto	i1l605
  6854  0022                     u189_20:
  6855  0022                     i1l2567:
  6856                           
  6857                           ;mcc_generated_files/interrupt_manager.c: 62:         {;mcc_generated_files/interrupt_ma
      +                          nager.c: 63:             TMR6_ISR();
  6858  0022  318F  271C  3180   	fcall	_TMR6_ISR
  6859                           
  6860                           ;mcc_generated_files/interrupt_manager.c: 64:         }
  6861  0025  2826               	goto	i1l609
  6862  0026                     i1l605:
  6863  0026                     i1l609:	
  6864                           ;mcc_generated_files/interrupt_manager.c: 69:     }
  6865                           
  6866  0026  107E               	bcf	int$flags,0	;clear compiler interrupt flag (level 1)
  6867  0027  0009               	retfie
  6868  0028                     __end_of_INTERRUPT_InterruptManager:
  6869                           
  6870                           	psect	text34
  6871  0F1C                     __ptext34:	
  6872 ;; *************** function _TMR6_ISR *****************
  6873 ;; Defined at:
  6874 ;;		line 119 in file "mcc_generated_files/tmr6.c"
  6875 ;; Parameters:    Size  Location     Type
  6876 ;;		None
  6877 ;; Auto vars:     Size  Location     Type
  6878 ;;		None
  6879 ;; Return value:  Size  Location     Type
  6880 ;;                  1    wreg      void 
  6881 ;; Registers used:
  6882 ;;		wreg, status,2, status,0, pclath, cstack
  6883 ;; Tracked objects:
  6884 ;;		On entry : 0/0
  6885 ;;		On exit  : 0/0
  6886 ;;		Unchanged: 0/0
  6887 ;; Data sizes:     COMMON   BANK0   BANK1   BANK2   BANK3   BANK4
  6888 ;;      Params:         0       0       0       0       0       0
  6889 ;;      Locals:         0       0       0       0       0       0
  6890 ;;      Temps:          0       0       0       0       0       0
  6891 ;;      Totals:         0       0       0       0       0       0
  6892 ;;Total ram usage:        0 bytes
  6893 ;; Hardware stack levels used: 1
  6894 ;; Hardware stack levels required when called: 1
  6895 ;; This function calls:
  6896 ;;		Absolute function
  6897 ;;		_Interrupcion_timer
  6898 ;;		_TMR6_DefaultInterruptHandler
  6899 ;; This function is called by:
  6900 ;;		_INTERRUPT_InterruptManager
  6901 ;; This function uses a non-reentrant model
  6902 ;;
  6903                           
  6904                           
  6905                           ;psect for function _TMR6_ISR
  6906  0F1C                     _TMR6_ISR:
  6907  0F1C                     i1l2317:	
  6908                           ;incstack = 0
  6909                           ; Regs used in _TMR6_ISR: [wreg+status,2+status,0+pclath+cstack]
  6910                           
  6911                           
  6912                           ;mcc_generated_files/tmr6.c: 123:     PIR3bits.TMR6IF = 0;
  6913  0F1C  0020               	movlb	0	; select bank0
  6914  0F1D  1193               	bcf	19,3	;volatile
  6915  0F1E                     i1l2319:
  6916                           
  6917                           ;mcc_generated_files/tmr6.c: 125:     if(TMR6_InterruptHandler)
  6918  0F1E  0021               	movlb	1	; select bank1
  6919  0F1F  0845               	movf	_TMR6_InterruptHandler^(0+128),w
  6920  0F20  0446               	iorwf	(_TMR6_InterruptHandler+1)^(0+128),w
  6921  0F21  1903               	btfsc	3,2
  6922  0F22  2F24               	goto	u167_21
  6923  0F23  2F25               	goto	u167_20
  6924  0F24                     u167_21:
  6925  0F24  2F2A               	goto	i1l40
  6926  0F25                     u167_20:
  6927  0F25                     i1l2321:
  6928                           
  6929                           ;mcc_generated_files/tmr6.c: 126:     {;mcc_generated_files/tmr6.c: 127:         TMR6_In
      +                          terruptHandler();
  6930  0F25  0846               	movf	(_TMR6_InterruptHandler+1)^(0+128),w
  6931  0F26  008A               	movwf	10
  6932  0F27  0845               	movf	_TMR6_InterruptHandler^(0+128),w
  6933  0F28  000A               	callw
  6934  0F29  318F               	pagesel	$
  6935  0F2A                     i1l40:
  6936  0F2A  0008               	return
  6937  0F2B                     __end_of_TMR6_ISR:
  6938                           
  6939                           	psect	text35
  6940  0EAE                     __ptext35:	
  6941 ;; *************** function _Interrupcion_timer *****************
  6942 ;; Defined at:
  6943 ;;		line 18 in file "main.c"
  6944 ;; Parameters:    Size  Location     Type
  6945 ;;		None
  6946 ;; Auto vars:     Size  Location     Type
  6947 ;;		None
  6948 ;; Return value:  Size  Location     Type
  6949 ;;                  1    wreg      void 
  6950 ;; Registers used:
  6951 ;;		wreg
  6952 ;; Tracked objects:
  6953 ;;		On entry : 0/0
  6954 ;;		On exit  : 0/0
  6955 ;;		Unchanged: 0/0
  6956 ;; Data sizes:     COMMON   BANK0   BANK1   BANK2   BANK3   BANK4
  6957 ;;      Params:         0       0       0       0       0       0
  6958 ;;      Locals:         0       0       0       0       0       0
  6959 ;;      Temps:          1       0       0       0       0       0
  6960 ;;      Totals:         1       0       0       0       0       0
  6961 ;;Total ram usage:        1 bytes
  6962 ;; Hardware stack levels used: 1
  6963 ;; This function calls:
  6964 ;;		Nothing
  6965 ;; This function is called by:
  6966 ;;		_main
  6967 ;;		_TMR6_ISR
  6968 ;; This function uses a non-reentrant model
  6969 ;;
  6970                           
  6971                           
  6972                           ;psect for function _Interrupcion_timer
  6973  0EAE                     _Interrupcion_timer:
  6974  0EAE                     i1l2029:	
  6975                           ;incstack = 0
  6976                           ; Regs used in _Interrupcion_timer: [wreg]
  6977                           
  6978                           
  6979                           ;main.c: 19:  timer_flag = 1;
  6980  0EAE  3001               	movlw	1
  6981  0EAF  00F0               	movwf	??_Interrupcion_timer
  6982  0EB0  0870               	movf	??_Interrupcion_timer,w
  6983  0EB1  00F9               	movwf	_timer_flag	;volatile
  6984  0EB2                     i1l304:
  6985  0EB2  0008               	return
  6986  0EB3                     __end_of_Interrupcion_timer:
  6987                           
  6988                           	psect	text36
  6989  0003                     __ptext36:	
  6990 ;; *************** function _TMR6_DefaultInterruptHandler *****************
  6991 ;; Defined at:
  6992 ;;		line 136 in file "mcc_generated_files/tmr6.c"
  6993 ;; Parameters:    Size  Location     Type
  6994 ;;		None
  6995 ;; Auto vars:     Size  Location     Type
  6996 ;;		None
  6997 ;; Return value:  Size  Location     Type
  6998 ;;                  1    wreg      void 
  6999 ;; Registers used:
  7000 ;;		None
  7001 ;; Tracked objects:
  7002 ;;		On entry : 0/0
  7003 ;;		On exit  : 0/0
  7004 ;;		Unchanged: 0/0
  7005 ;; Data sizes:     COMMON   BANK0   BANK1   BANK2   BANK3   BANK4
  7006 ;;      Params:         0       0       0       0       0       0
  7007 ;;      Locals:         0       0       0       0       0       0
  7008 ;;      Temps:          0       0       0       0       0       0
  7009 ;;      Totals:         0       0       0       0       0       0
  7010 ;;Total ram usage:        0 bytes
  7011 ;; Hardware stack levels used: 1
  7012 ;; This function calls:
  7013 ;;		Nothing
  7014 ;; This function is called by:
  7015 ;;		_TMR6_Initialize
  7016 ;;		_TMR6_ISR
  7017 ;; This function uses a non-reentrant model
  7018 ;;
  7019                           
  7020                           
  7021                           ;psect for function _TMR6_DefaultInterruptHandler
  7022  0003                     _TMR6_DefaultInterruptHandler:
  7023  0003                     i1l46:	
  7024                           ;incstack = 0
  7025                           ; Regs used in _TMR6_DefaultInterruptHandler: []
  7026                           
  7027  0003  0008               	return
  7028  0004                     __end_of_TMR6_DefaultInterruptHandler:
  7029                           
  7030                           	psect	text37
  7031  0F0D                     __ptext37:	
  7032 ;; *************** function _ADC_ISR *****************
  7033 ;; Defined at:
  7034 ;;		line 145 in file "mcc_generated_files/adc.c"
  7035 ;; Parameters:    Size  Location     Type
  7036 ;;		None
  7037 ;; Auto vars:     Size  Location     Type
  7038 ;;		None
  7039 ;; Return value:  Size  Location     Type
  7040 ;;                  1    wreg      void 
  7041 ;; Registers used:
  7042 ;;		wreg, status,2, status,0, pclath, cstack
  7043 ;; Tracked objects:
  7044 ;;		On entry : 0/0
  7045 ;;		On exit  : 0/0
  7046 ;;		Unchanged: 0/0
  7047 ;; Data sizes:     COMMON   BANK0   BANK1   BANK2   BANK3   BANK4
  7048 ;;      Params:         0       0       0       0       0       0
  7049 ;;      Locals:         0       0       0       0       0       0
  7050 ;;      Temps:          0       0       0       0       0       0
  7051 ;;      Totals:         0       0       0       0       0       0
  7052 ;;Total ram usage:        0 bytes
  7053 ;; Hardware stack levels used: 1
  7054 ;; Hardware stack levels required when called: 2
  7055 ;; This function calls:
  7056 ;;		Absolute function
  7057 ;;		_ADC_DefaultInterruptHandler
  7058 ;;		_Interrupcion_ADC
  7059 ;; This function is called by:
  7060 ;;		_INTERRUPT_InterruptManager
  7061 ;; This function uses a non-reentrant model
  7062 ;;
  7063                           
  7064                           
  7065                           ;psect for function _ADC_ISR
  7066  0F0D                     _ADC_ISR:
  7067  0F0D                     i1l2341:	
  7068                           ;incstack = 0
  7069                           ; Regs used in _ADC_ISR: [wreg+status,2+status,0+pclath+cstack]
  7070                           
  7071                           
  7072                           ;mcc_generated_files/adc.c: 148:     PIR1bits.ADIF = 0;
  7073  0F0D  0020               	movlb	0	; select bank0
  7074  0F0E  1311               	bcf	17,6	;volatile
  7075  0F0F                     i1l2343:
  7076                           
  7077                           ;mcc_generated_files/adc.c: 150:  if(ADC_InterruptHandler)
  7078  0F0F  0021               	movlb	1	; select bank1
  7079  0F10  083D               	movf	_ADC_InterruptHandler^(0+128),w
  7080  0F11  043E               	iorwf	(_ADC_InterruptHandler+1)^(0+128),w
  7081  0F12  1903               	btfsc	3,2
  7082  0F13  2F15               	goto	u171_21
  7083  0F14  2F16               	goto	u171_20
  7084  0F15                     u171_21:
  7085  0F15  2F1B               	goto	i1l212
  7086  0F16                     u171_20:
  7087  0F16                     i1l2345:
  7088                           
  7089                           ;mcc_generated_files/adc.c: 151:     {;mcc_generated_files/adc.c: 152:         ADC_Inter
      +                          ruptHandler();
  7090  0F16  083E               	movf	(_ADC_InterruptHandler+1)^(0+128),w
  7091  0F17  008A               	movwf	10
  7092  0F18  083D               	movf	_ADC_InterruptHandler^(0+128),w
  7093  0F19  000A               	callw
  7094  0F1A  318F               	pagesel	$
  7095  0F1B                     i1l212:
  7096  0F1B  0008               	return
  7097  0F1C                     __end_of_ADC_ISR:
  7098                           
  7099                           	psect	text38
  7100  0002                     __ptext38:	
  7101 ;; *************** function _ADC_DefaultInterruptHandler *****************
  7102 ;; Defined at:
  7103 ;;		line 160 in file "mcc_generated_files/adc.c"
  7104 ;; Parameters:    Size  Location     Type
  7105 ;;		None
  7106 ;; Auto vars:     Size  Location     Type
  7107 ;;		None
  7108 ;; Return value:  Size  Location     Type
  7109 ;;                  1    wreg      void 
  7110 ;; Registers used:
  7111 ;;		None
  7112 ;; Tracked objects:
  7113 ;;		On entry : 0/0
  7114 ;;		On exit  : 0/0
  7115 ;;		Unchanged: 0/0
  7116 ;; Data sizes:     COMMON   BANK0   BANK1   BANK2   BANK3   BANK4
  7117 ;;      Params:         0       0       0       0       0       0
  7118 ;;      Locals:         0       0       0       0       0       0
  7119 ;;      Temps:          0       0       0       0       0       0
  7120 ;;      Totals:         0       0       0       0       0       0
  7121 ;;Total ram usage:        0 bytes
  7122 ;; Hardware stack levels used: 1
  7123 ;; This function calls:
  7124 ;;		Nothing
  7125 ;; This function is called by:
  7126 ;;		_ADC_Initialize
  7127 ;;		_ADC_ISR
  7128 ;; This function uses a non-reentrant model
  7129 ;;
  7130                           
  7131                           
  7132                           ;psect for function _ADC_DefaultInterruptHandler
  7133  0002                     _ADC_DefaultInterruptHandler:
  7134  0002                     i1l218:	
  7135                           ;incstack = 0
  7136                           ; Regs used in _ADC_DefaultInterruptHandler: []
  7137                           
  7138  0002  0008               	return
  7139  0003                     __end_of_ADC_DefaultInterruptHandler:
  7140                           
  7141                           	psect	text39
  7142  0EFF                     __ptext39:	
  7143 ;; *************** function _Interrupcion_ADC *****************
  7144 ;; Defined at:
  7145 ;;		line 13 in file "main.c"
  7146 ;; Parameters:    Size  Location     Type
  7147 ;;		None
  7148 ;; Auto vars:     Size  Location     Type
  7149 ;;		None
  7150 ;; Return value:  Size  Location     Type
  7151 ;;                  1    wreg      void 
  7152 ;; Registers used:
  7153 ;;		wreg, pclath, cstack
  7154 ;; Tracked objects:
  7155 ;;		On entry : 0/0
  7156 ;;		On exit  : 0/0
  7157 ;;		Unchanged: 0/0
  7158 ;; Data sizes:     COMMON   BANK0   BANK1   BANK2   BANK3   BANK4
  7159 ;;      Params:         0       0       0       0       0       0
  7160 ;;      Locals:         0       0       0       0       0       0
  7161 ;;      Temps:          1       0       0       0       0       0
  7162 ;;      Totals:         1       0       0       0       0       0
  7163 ;;Total ram usage:        1 bytes
  7164 ;; Hardware stack levels used: 1
  7165 ;; Hardware stack levels required when called: 1
  7166 ;; This function calls:
  7167 ;;		_ADC_GetConversionResult
  7168 ;; This function is called by:
  7169 ;;		_main
  7170 ;;		_ADC_ISR
  7171 ;; This function uses a non-reentrant model
  7172 ;;
  7173                           
  7174                           
  7175                           ;psect for function _Interrupcion_ADC
  7176  0EFF                     _Interrupcion_ADC:
  7177  0EFF                     i1l2025:	
  7178                           ;incstack = 0
  7179                           ; Regs used in _Interrupcion_ADC: [wreg+pclath+cstack]
  7180                           
  7181                           
  7182                           ;main.c: 14:  num_ADC = ADC_GetConversionResult();
  7183  0EFF  318E  26B3  318E   	fcall	_ADC_GetConversionResult
  7184  0F02  0871               	movf	?_ADC_GetConversionResult+1,w
  7185  0F03  0021               	movlb	1	; select bank1
  7186  0F04  00BC               	movwf	(_num_ADC+1)^(0+128)	;volatile
  7187  0F05  0870               	movf	?_ADC_GetConversionResult,w
  7188  0F06  00BB               	movwf	_num_ADC^(0+128)	;volatile
  7189  0F07                     i1l2027:
  7190                           
  7191                           ;main.c: 15:  ADC_flag = 1;
  7192  0F07  3001               	movlw	1
  7193  0F08  00F2               	movwf	??_Interrupcion_ADC
  7194  0F09  0872               	movf	??_Interrupcion_ADC,w
  7195  0F0A  0020               	movlb	0	; select bank0
  7196  0F0B  00D6               	movwf	_ADC_flag	;volatile
  7197  0F0C                     i1l301:
  7198  0F0C  0008               	return
  7199  0F0D                     __end_of_Interrupcion_ADC:
  7200                           
  7201                           	psect	text40
  7202  0EB3                     __ptext40:	
  7203 ;; *************** function _ADC_GetConversionResult *****************
  7204 ;; Defined at:
  7205 ;;		line 111 in file "mcc_generated_files/adc.c"
  7206 ;; Parameters:    Size  Location     Type
  7207 ;;		None
  7208 ;; Auto vars:     Size  Location     Type
  7209 ;;		None
  7210 ;; Return value:  Size  Location     Type
  7211 ;;                  2    0[COMMON] unsigned short 
  7212 ;; Registers used:
  7213 ;;		wreg
  7214 ;; Tracked objects:
  7215 ;;		On entry : 0/0
  7216 ;;		On exit  : 0/0
  7217 ;;		Unchanged: 0/0
  7218 ;; Data sizes:     COMMON   BANK0   BANK1   BANK2   BANK3   BANK4
  7219 ;;      Params:         2       0       0       0       0       0
  7220 ;;      Locals:         0       0       0       0       0       0
  7221 ;;      Temps:          0       0       0       0       0       0
  7222 ;;      Totals:         2       0       0       0       0       0
  7223 ;;Total ram usage:        2 bytes
  7224 ;; Hardware stack levels used: 1
  7225 ;; This function calls:
  7226 ;;		Nothing
  7227 ;; This function is called by:
  7228 ;;		_Interrupcion_ADC
  7229 ;; This function uses a non-reentrant model
  7230 ;;
  7231                           
  7232                           
  7233                           ;psect for function _ADC_GetConversionResult
  7234  0EB3                     _ADC_GetConversionResult:
  7235  0EB3                     i1l1955:	
  7236                           ;incstack = 0
  7237                           ; Regs used in _ADC_GetConversionResult: [wreg]
  7238                           
  7239                           
  7240                           ;mcc_generated_files/adc.c: 114:     return ((adc_result_t)((ADRESH << 8) + ADRESL));
  7241  0EB3  0021               	movlb	1	; select bank1
  7242  0EB4  081C               	movf	28,w	;volatile
  7243  0EB5  00F1               	movwf	?_ADC_GetConversionResult+1
  7244  0EB6  081B               	movf	27,w	;volatile
  7245  0EB7  00F0               	movwf	?_ADC_GetConversionResult
  7246  0EB8                     i1l199:
  7247  0EB8  0008               	return
  7248  0EB9                     __end_of_ADC_GetConversionResult:
  7249  007E                     btemp	set	126	;btemp
  7250  007E                     int$flags	set	126
  7251  007E                     wtemp0	set	126
  7252                           
  7253                           	psect	config
  7254                           
  7255                           ;Config register CONFIG1 @ 0x8007
  7256                           ;	Oscillator Selection
  7257                           ;	FOSC = INTOSC, INTOSC oscillator: I/O function on CLKIN pin
  7258                           ;	Watchdog Timer Enable
  7259                           ;	WDTE = OFF, WDT disabled
  7260                           ;	Power-up Timer Enable
  7261                           ;	PWRTE = OFF, PWRT disabled
  7262                           ;	MCLR Pin Function Select
  7263                           ;	MCLRE = ON, MCLR/VPP pin function is MCLR
  7264                           ;	Flash Program Memory Code Protection
  7265                           ;	CP = OFF, Program memory code protection is disabled
  7266                           ;	Data Memory Code Protection
  7267                           ;	CPD = OFF, Data memory code protection is disabled
  7268                           ;	Brown-out Reset Enable
  7269                           ;	BOREN = ON, Brown-out Reset enabled
  7270                           ;	Clock Out Enable
  7271                           ;	CLKOUTEN = OFF, CLKOUT function is disabled. I/O or oscillator function on the CLKOUT 
      +                          pin
  7272                           ;	Internal/External Switchover
  7273                           ;	IESO = ON, Internal/External Switchover mode is enabled
  7274                           ;	Fail-Safe Clock Monitor Enable
  7275                           ;	FCMEN = ON, Fail-Safe Clock Monitor is enabled
  7276  8007                     	org	32775
  7277  8007  3FE4               	dw	16356
  7278                           
  7279                           ;Config register CONFIG2 @ 0x8008
  7280                           ;	Flash Memory Self-Write Protection
  7281                           ;	WRT = OFF, Write protection off
  7282                           ;	PLL Enable
  7283                           ;	PLLEN = ON, 4x PLL enabled
  7284                           ;	Stack Overflow/Underflow Reset Enable
  7285                           ;	STVREN = ON, Stack Overflow or Underflow will cause a Reset
  7286                           ;	Brown-out Reset Voltage Selection
  7287                           ;	BORV = LO, Brown-out Reset Voltage (Vbor), low trip point selected.
  7288                           ;	Low-Voltage Programming Enable
  7289                           ;	LVP = ON, Low-voltage programming enabled
  7290  8008                     	org	32776
  7291  8008  3FFF               	dw	16383

Data Sizes:
    Strings     0
    Constant    0
    Data        0
    BSS         15
    Persistent  32
    Stack       0

Auto Spaces:
    Space          Size  Autos    Used
    COMMON           14      9      11
    BANK0            80     54      55
    BANK1            80     27      39
    BANK2            80      0       0
    BANK3            80      0       0
    BANK4            48      0       0

Pointer List with Targets:

    Tm_Baje_periodico@ctp	PTR struct Tm_Periodico size(1) Largest target is 9
		 -> main@timer_1ms(BANK1[9]), 

    Tm_Hubo_periodico@ctp	PTR struct Tm_Periodico size(1) Largest target is 9
		 -> main@timer_1ms(BANK1[9]), 

    Tm_Procese_tiempo@ctp	PTR struct Tm_Periodico size(1) Largest target is 9
		 -> main@timer_1ms(BANK1[9]), 

    Tm_Inicie_periodico@ctp	PTR struct Tm_Periodico size(1) Largest target is 9
		 -> main@timer_1ms(BANK1[9]), 

    Ds_Procese_displays@dsp	PTR struct Ds_Display size(1) Largest target is 8
		 -> main@seven_seg(BANK1[8]), 

    Ds_Convertir_en_uni@dsp	PTR struct Ds_Display size(1) Largest target is 8
		 -> main@seven_seg(BANK1[8]), 

    Ds_Iniciar_displays@dsp	PTR struct Ds_Display size(1) Largest target is 8
		 -> main@seven_seg(BANK1[8]), 

    ADC_SetInterruptHandler@InterruptHandler	PTR FTN()void  size(2) Largest target is 1
		 -> Interrupcion_ADC(), ADC_DefaultInterruptHandler(), 

    ADC_InterruptHandler	PTR FTN()void  size(2) Largest target is 1
		 -> Interrupcion_ADC(), ADC_DefaultInterruptHandler(), Absolute function(), 

    EUSART_SetErrorHandler@interruptHandler	PTR FTN()void  size(2) Largest target is 1
		 -> EUSART_DefaultErrorHandler(), 

    EUSART_ErrorHandler	PTR FTN()void  size(2) Largest target is 1
		 -> EUSART_DefaultErrorHandler(), Absolute function(), 

    EUSART_SetOverrunErrorHandler@interruptHandler	PTR FTN()void  size(2) Largest target is 1
		 -> EUSART_DefaultOverrunErrorHandler(), 

    EUSART_OverrunErrorHandler	PTR FTN()void  size(2) Largest target is 1
		 -> EUSART_DefaultOverrunErrorHandler(), Absolute function(), 

    EUSART_SetFramingErrorHandler@interruptHandler	PTR FTN()void  size(2) Largest target is 1
		 -> EUSART_DefaultFramingErrorHandler(), 

    EUSART_FramingErrorHandler	PTR FTN()void  size(2) Largest target is 1
		 -> EUSART_DefaultFramingErrorHandler(), Absolute function(), 

    TMR6_SetInterruptHandler@InterruptHandler	PTR FTN()void  size(2) Largest target is 1
		 -> Interrupcion_timer(), TMR6_DefaultInterruptHandler(), 

    TMR6_InterruptHandler	PTR FTN()void  size(2) Largest target is 1
		 -> Interrupcion_timer(), Absolute function(), TMR6_DefaultInterruptHandler(), 


Critical Paths under _main in COMMON

    _main->_Ds_Iniciar_displays
    _main->_Ds_Procese_displays
    _TMR6_Initialize->_TMR6_SetInterruptHandler
    _EUSART_Initialize->_EUSART_SetErrorHandler
    _EUSART_Initialize->_EUSART_SetFramingErrorHandler
    _EUSART_Initialize->_EUSART_SetOverrunErrorHandler
    _ADC_Initialize->_ADC_SetInterruptHandler
    _Ds_Procese_displays->_Ds_BCD
    _Ds_Convertir_en_uni->___lwmod
    _Ds_Conversor_ADC->___fltol
    ___fltol->___xxtofl
    ___flmul->__Umul8_16
    ___flmul->___xxtofl

Critical Paths under _INTERRUPT_InterruptManager in COMMON

    _TMR6_ISR->_Interrupcion_timer
    _ADC_ISR->_Interrupcion_ADC
    _Interrupcion_ADC->_ADC_GetConversionResult

Critical Paths under _main in BANK0

    _main->_Ds_Conversor_ADC
    _Ds_Convertir_en_uni->___lwdiv
    _Ds_Conversor_ADC->___fltol
    ___fltol->___flmul
    ___flmul->___xxtofl

Critical Paths under _INTERRUPT_InterruptManager in BANK0

    None.

Critical Paths under _main in BANK1

    None.

Critical Paths under _INTERRUPT_InterruptManager in BANK1

    None.

Critical Paths under _main in BANK2

    None.

Critical Paths under _INTERRUPT_InterruptManager in BANK2

    None.

Critical Paths under _main in BANK3

    None.

Critical Paths under _INTERRUPT_InterruptManager in BANK3

    None.

Critical Paths under _main in BANK4

    None.

Critical Paths under _INTERRUPT_InterruptManager in BANK4

    None.

Call Graph Tables:

 ---------------------------------------------------------------------------------
 (Depth) Function   	        Calls       Base Space   Used Autos Params    Refs
 ---------------------------------------------------------------------------------
 (0) _main                                                29    29      0   11751
                                             53 BANK0      1     1      0
                                              0 BANK1     27    27      0
                     _ADC_Initialize
            _ADC_SetInterruptHandler
                _ADC_StartConversion
                   _Ds_Conversor_ADC
                _Ds_Convertir_en_uni
                _Ds_Iniciar_displays
                _Ds_Procese_displays
                       _EUSART_Write
                 _EUSART_is_tx_ready
                  _SYSTEM_Initialize
           _TMR6_SetInterruptHandler
                    _TMR6_StartTimer
                  _Tm_Baje_periodico
                  _Tm_Hubo_periodico
                _Tm_Inicie_periodico
                  _Tm_Procese_tiempo
 ---------------------------------------------------------------------------------
 (1) _Tm_Procese_tiempo                                    5     5      0     315
                                              3 COMMON     5     5      0
 ---------------------------------------------------------------------------------
 (1) _Tm_Inicie_periodico                                  4     2      2     281
                                              3 COMMON     4     2      2
 ---------------------------------------------------------------------------------
 (1) _Tm_Hubo_periodico                                    1     1      0      67
                                              3 COMMON     1     1      0
 ---------------------------------------------------------------------------------
 (1) _Tm_Baje_periodico                                    2     2      0      67
                                              3 COMMON     2     2      0
 ---------------------------------------------------------------------------------
 (1) _TMR6_StartTimer                                      0     0      0       0
 ---------------------------------------------------------------------------------
 (1) _SYSTEM_Initialize                                    0     0      0     785
                     _ADC_Initialize
                  _EUSART_Initialize
              _OSCILLATOR_Initialize
             _PIN_MANAGER_Initialize
                    _TMR6_Initialize
                     _WDT_Initialize
 ---------------------------------------------------------------------------------
 (2) _WDT_Initialize                                       0     0      0       0
 ---------------------------------------------------------------------------------
 (2) _TMR6_Initialize                                      0     0      0     211
           _TMR6_SetInterruptHandler
 ---------------------------------------------------------------------------------
 (1) _TMR6_SetInterruptHandler                             2     0      2     211
                                              3 COMMON     2     0      2
 ---------------------------------------------------------------------------------
 (2) _PIN_MANAGER_Initialize                               0     0      0       0
 ---------------------------------------------------------------------------------
 (2) _OSCILLATOR_Initialize                                0     0      0       0
 ---------------------------------------------------------------------------------
 (2) _EUSART_Initialize                                    0     0      0     363
             _EUSART_SetErrorHandler
      _EUSART_SetFramingErrorHandler
      _EUSART_SetOverrunErrorHandler
 ---------------------------------------------------------------------------------
 (3) _EUSART_SetOverrunErrorHandler                        2     0      2     121
                                              3 COMMON     2     0      2
 ---------------------------------------------------------------------------------
 (3) _EUSART_SetFramingErrorHandler                        2     0      2     121
                                              3 COMMON     2     0      2
 ---------------------------------------------------------------------------------
 (3) _EUSART_SetErrorHandler                               2     0      2     121
                                              3 COMMON     2     0      2
 ---------------------------------------------------------------------------------
 (2) _ADC_Initialize                                       0     0      0     211
            _ADC_SetInterruptHandler
 ---------------------------------------------------------------------------------
 (3) _ADC_SetInterruptHandler                              2     0      2     211
                                              3 COMMON     2     0      2
 ---------------------------------------------------------------------------------
 (1) _EUSART_is_tx_ready                                   1     1      0      37
                                              3 COMMON     1     1      0
 ---------------------------------------------------------------------------------
 (1) _EUSART_Write                                         1     1      0      31
                                              3 COMMON     1     1      0
 ---------------------------------------------------------------------------------
 (1) _Ds_Procese_displays                                  3     3      0    1214
                                              6 COMMON     3     3      0
                             _Ds_BCD
                   _Ds_Encienda_Disp
 ---------------------------------------------------------------------------------
 (2) _Ds_Encienda_Disp                                     1     1      0      93
                                              3 COMMON     1     1      0
 ---------------------------------------------------------------------------------
 (2) _Ds_BCD                                               3     3      0      31
                                              3 COMMON     3     3      0
 ---------------------------------------------------------------------------------
 (1) _Ds_Iniciar_displays                                  7     2      5     951
                                              3 COMMON     6     1      5
                                              0 BANK0      1     1      0
 ---------------------------------------------------------------------------------
 (1) _Ds_Convertir_en_uni                                  4     2      2    1753
                                              3 BANK0      4     2      2
                            ___lwdiv
                            ___lwmod
 ---------------------------------------------------------------------------------
 (2) ___lwmod                                              6     2      4     772
                                              3 COMMON     6     2      4
 ---------------------------------------------------------------------------------
 (2) ___lwdiv                                              8     4      4     601
                                              3 COMMON     5     1      4
                                              0 BANK0      3     3      0
 ---------------------------------------------------------------------------------
 (1) _Ds_Conversor_ADC                                     8     6      2    4535
                                             45 BANK0      8     6      2
                            ___flmul
                            ___fltol
                           ___xxtofl
 ---------------------------------------------------------------------------------
 (2) ___xxtofl                                            14    10      4     566
                                              3 COMMON     4     0      4
                                              0 BANK0     10    10      0
 ---------------------------------------------------------------------------------
 (2) ___fltol                                             11     7      4     427
                                              7 COMMON     2     2      0
                                             36 BANK0      9     5      4
                            ___flmul (ARG)
                           ___xxtofl (ARG)
 ---------------------------------------------------------------------------------
 (2) ___flmul                                             26    18      8    3353
                                             10 BANK0     26    18      8
                          __Umul8_16
                           ___xxtofl (ARG)
 ---------------------------------------------------------------------------------
 (3) __Umul8_16                                            9     7      2     980
                                              3 COMMON     4     2      2
                                              0 BANK0      5     5      0
 ---------------------------------------------------------------------------------
 (1) _ADC_StartConversion                                  0     0      0       0
 ---------------------------------------------------------------------------------
 Estimated maximum stack depth 3
 ---------------------------------------------------------------------------------
 (Depth) Function   	        Calls       Base Space   Used Autos Params    Refs
 ---------------------------------------------------------------------------------
 (4) _INTERRUPT_InterruptManager                           0     0      0       0
                            _ADC_ISR
                           _TMR6_ISR
 ---------------------------------------------------------------------------------
 (5) _TMR6_ISR                                             0     0      0       0
                   Absolute function *
                 _Interrupcion_timer *
       _TMR6_DefaultInterruptHandler *
 ---------------------------------------------------------------------------------
 (6) _TMR6_DefaultInterruptHandler                         0     0      0       0
 ---------------------------------------------------------------------------------
 (6) _Interrupcion_timer                                   1     1      0       0
                                              0 COMMON     1     1      0
 ---------------------------------------------------------------------------------
 (5) _ADC_ISR                                              0     0      0       0
                   Absolute function *
        _ADC_DefaultInterruptHandler *
                   _Interrupcion_ADC *
 ---------------------------------------------------------------------------------
 (6) _Interrupcion_ADC                                     1     1      0       0
                                              2 COMMON     1     1      0
            _ADC_GetConversionResult
 ---------------------------------------------------------------------------------
 (7) _ADC_GetConversionResult                              2     0      2       0
                                              0 COMMON     2     0      2
 ---------------------------------------------------------------------------------
 (6) _ADC_DefaultInterruptHandler                          0     0      0       0
 ---------------------------------------------------------------------------------
 (6) Absolute function(Fake)                               0     0      0       0
 ---------------------------------------------------------------------------------
 Estimated maximum stack depth 7
 ---------------------------------------------------------------------------------

 Call Graph Graphs:

 _main (ROOT)
   _ADC_Initialize
     _ADC_SetInterruptHandler
   _ADC_SetInterruptHandler
   _ADC_StartConversion
   _Ds_Conversor_ADC
     ___flmul
       __Umul8_16
       ___xxtofl (ARG)
     ___fltol
       ___flmul (ARG)
       ___xxtofl (ARG)
     ___xxtofl
   _Ds_Convertir_en_uni
     ___lwdiv
     ___lwmod
   _Ds_Iniciar_displays
   _Ds_Procese_displays
     _Ds_BCD
     _Ds_Encienda_Disp
   _EUSART_Write
   _EUSART_is_tx_ready
   _SYSTEM_Initialize
     _ADC_Initialize
     _EUSART_Initialize
       _EUSART_SetErrorHandler
       _EUSART_SetFramingErrorHandler
       _EUSART_SetOverrunErrorHandler
     _OSCILLATOR_Initialize
     _PIN_MANAGER_Initialize
     _TMR6_Initialize
       _TMR6_SetInterruptHandler
     _WDT_Initialize
   _TMR6_SetInterruptHandler
   _TMR6_StartTimer
   _Tm_Baje_periodico
   _Tm_Hubo_periodico
   _Tm_Inicie_periodico
   _Tm_Procese_tiempo

 _INTERRUPT_InterruptManager (ROOT)
   _ADC_ISR
     Absolute function(Fake) *
     _ADC_DefaultInterruptHandler *
     _Interrupcion_ADC *
       _ADC_GetConversionResult
   _TMR6_ISR
     Absolute function(Fake) *
     _Interrupcion_timer *
     _TMR6_DefaultInterruptHandler *

 Address spaces:
Name               Size   Autos  Total    Cost      Usage
BIGRAM             170      0       0       0        0.0%
EEDATA             100      0       0       0        0.0%
NULL                 0      0       0       0        0.0%
CODE                 0      0       0       0        0.0%
BITCOMMON            E      0       0       1        0.0%
BITSFR0              0      0       0       1        0.0%
SFR0                 0      0       0       1        0.0%
COMMON               E      9       B       2       78.6%
BITSFR1              0      0       0       2        0.0%
SFR1                 0      0       0       2        0.0%
BITSFR2              0      0       0       3        0.0%
SFR2                 0      0       0       3        0.0%
STACK                0      0       0       3        0.0%
BITSFR3              0      0       0       4        0.0%
SFR3                 0      0       0       4        0.0%
ABS                  0      0      69       4        0.0%
BITBANK0            50      0       0       5        0.0%
BITSFR4              0      0       0       5        0.0%
SFR4                 0      0       0       5        0.0%
BANK0               50     36      37       6       68.8%
BITSFR5              0      0       0       6        0.0%
SFR5                 0      0       0       6        0.0%
BITBANK1            50      0       0       7        0.0%
BITSFR6              0      0       0       7        0.0%
SFR6                 0      0       0       7        0.0%
BANK1               50     1B      27       8       48.8%
BITSFR7              0      0       0       8        0.0%
SFR7                 0      0       0       8        0.0%
BITBANK2            50      0       0       9        0.0%
BITSFR8              0      0       0       9        0.0%
SFR8                 0      0       0       9        0.0%
BANK2               50      0       0      10        0.0%
BITSFR9              0      0       0      10        0.0%
SFR9                 0      0       0      10        0.0%
BITBANK3            50      0       0      11        0.0%
BITSFR10             0      0       0      11        0.0%
SFR10                0      0       0      11        0.0%
BANK3               50      0       0      12        0.0%
BITSFR11             0      0       0      12        0.0%
SFR11                0      0       0      12        0.0%
BITBANK4            30      0       0      13        0.0%
BITSFR12             0      0       0      13        0.0%
SFR12                0      0       0      13        0.0%
BANK4               30      0       0      14        0.0%
BITSFR13             0      0       0      14        0.0%
SFR13                0      0       0      14        0.0%
BITSFR14             0      0       0      15        0.0%
SFR14                0      0       0      15        0.0%
DATA                 0      0      69      15        0.0%
BITSFR15             0      0       0      16        0.0%
SFR15                0      0       0      16        0.0%
BITSFR16             0      0       0      17        0.0%
SFR16                0      0       0      17        0.0%
BITSFR17             0      0       0      18        0.0%
SFR17                0      0       0      18        0.0%
BITSFR18             0      0       0      19        0.0%
SFR18                0      0       0      19        0.0%
BITSFR19             0      0       0      20        0.0%
SFR19                0      0       0      20        0.0%
BITSFR20             0      0       0      21        0.0%
SFR20                0      0       0      21        0.0%
BITSFR21             0      0       0      22        0.0%
SFR21                0      0       0      22        0.0%
BITSFR22             0      0       0      23        0.0%
SFR22                0      0       0      23        0.0%
BITSFR23             0      0       0      24        0.0%
SFR23                0      0       0      24        0.0%
BITSFR24             0      0       0      25        0.0%
SFR24                0      0       0      25        0.0%
BITSFR25             0      0       0      26        0.0%
SFR25                0      0       0      26        0.0%
BITSFR26             0      0       0      27        0.0%
SFR26                0      0       0      27        0.0%
BITSFR27             0      0       0      28        0.0%
SFR27                0      0       0      28        0.0%
BITSFR28             0      0       0      29        0.0%
SFR28                0      0       0      29        0.0%
BITSFR29             0      0       0      30        0.0%
SFR29                0      0       0      30        0.0%
BITSFR30             0      0       0      31        0.0%
SFR30                0      0       0      31        0.0%
BITSFR31             0      0       0      32        0.0%
SFR31                0      0       0      32        0.0%


Microchip Technology PIC Macro Assembler V2.32 build 20210201212658 
Symbol Table                                                                                   Fri Sep 10 02:12:45 2021

                  __end_of_Ds_Convertir_en_uni 0703                                             l21 0F4C  
                                           l24 0EAD                                             l43 0ED6  
                                           l71 0F75                              ??_TMR6_StartTimer 0073  
                         ??_Interrupcion_timer 0070                            __Umul8_16@word_mpld 0022  
                                          l122 0F39                                            l141 0EE0  
                                          l117 0FB5                                            l215 0EBE  
                                          l144 0EE8                                            l401 056B  
                                          l410 0571                                            l330 0541  
                                          l162 0EC4                                            l403 056C  
                                          l243 0F5F                                            l412 0572  
                                          l340 0547                                            l332 0543  
                                          l156 0ECA                                            l252 0EAA  
                                          l501 07BB                                            l325 0741  
                                          l421 0577                                            l414 0573  
                                          l406 056E                                            l350 054D  
                                          l342 0548                                            l334 0544  
                                          l246 0EF9                                            l431 057D  
                                          l423 0579                                            l159 0ED0  
                                          l440 0583                                            l416 0574  
                                          l408 0570                                            l352 054E  
                                          l336 0545                                            l193 0EA7  
                                          l433 057E                                            l425 057A  
                                          l361 0553                                            l249 0EFE  
                                          l442 0584                                            l418 0575  
                                          l354 054F                                            l346 054A  
                                          l338 0546                                            l530 0FE3  
                                          l522 03BF                                            l451 0589  
                                          l427 057B                                            l371 0559  
                                          l363 0555                                            l187 07FF  
                                          l444 0585                                            l436 0580  
                                          l380 055F                                            l356 0550  
                                          l348 054C                                            l461 058F  
                                          l453 058B                                            l429 057C  
                                          l373 055A                                            l365 0556  
                                          l470 0595                                            l446 0586  
                                          l438 0582                                            l382 0560  
                                          l358 0551                                            l542 0FF6  
                                          l534 0FEB                                            l526 0FE0  
                                          l463 0590                                            l455 058C  
                                          l391 0565                                            l367 0557  
                                          l551 0FFD                                            l472 0596  
                                          l448 0587                                            l384 0561  
                                          l376 055C                                            l544 0FF8  
                                          l536 0FED                                            l528 0FE2  
                                          l481 059B                                            l457 058D  
                                          l393 0567                                            l369 0558  
                                          l553 0FFE                                            l474 0597  
                                          l466 0592                                            l386 0562  
                                          l378 055E                                            l546 0FF9  
                                          l538 0FEE                                            l570 0EF2  
                                          l491 05A1                                            l483 059D  
                                          l459 058E                                            l395 0568  
                                          l555 0FFF                                            l476 0598  
                                          l468 0594                                            l388 0563  
                                          l564 06A4                                            l493 05A2  
                                          l485 059E                                            l397 0569  
                                          l549 0FFB                                            l478 0599  
                                          l558 0F93                                            l487 059F  
                                          l399 056A                                            l495 05CF  
                                          l567 0EDE                                            l489 05A0  
                                          l498 0702                                            l960 062F  
                                          l953 0644                                            l963 0644  
                                          _PR6 041D                                __end_of_ADC_ISR 0F1C  
               ?_EUSART_SetFramingErrorHandler 0073                __end_of_ADC_SetInterruptHandler 0EBF  
                                          wreg 0009                                   ___flmul@aexp 0038  
                                 ___flmul@bexp 003D                   ?_ADC_DefaultInterruptHandler 0070  
                                 ___flmul@sign 0037                                   ___flmul@temp 0042  
                                 ___flmul@prod 003E                                   ___fltol@exp1 0078  
                                         l1200 04B5                                           l1202 053E  
                                         l1213 050A                                           l1214 0516  
                                         l1206 04F0                                           l1039 077E  
                                         l1049 07EF                                           l3001 0705  
                                         l1162 0211                                           l3011 0731  
                                         l3003 0711                                           l1156 0295  
                                         l3101 077F                                           l3013 0739  
                                         l3005 0719                                           l3021 0660  
                                         l1175 0FC9                                           l3103 0788  
                                         l3111 06BA                                           l3007 0721  
                                         l3031 0298                                           l3023 0665  
                                         l3015 0646                                           l1168 0289  
                                         l1177 0FD9                                           l3105 07B7  
                                         l3113 06CA                                           l3009 0729  
                                         l3041 02C6                                           l3033 02A7  
                                         l3017 064E                                           l3025 0670  
                                         l3121 03C4                                           l3115 06EE  
                                         l3051 02FC                                           l3043 02D5  
                                         l3035 02AE                                           l3027 0684  
                                         l3019 0657                                           l3131 03CD  
                                         l3123 03C5                                           l3109 06A7  
                                         l3061 032B                                           l3053 0303  
                                         l3045 02DC                                           l3037 02BA  
                                         l3029 0297                                           l3141 03EA  
                                         l3133 03D0                                           l3125 03C5  
                                         l3117 03C0                                           l3071 0359  
                                         l3063 0332                                           l3055 030F  
                                         l3047 02E8                                           l3039 02BE  
                                         l3151 0401                                           l3143 03ED  
                                         l3135 03D4                                           l3127 03C5  
                                         l3119 03C3                                           l3241 05AC  
                                         l3081 0386                                           l3073 0365  
                                         l3065 033E                                           l3057 0313  
                                         l3049 02ED                                           l3161 0419  
                                         l3153 0405                                           l3145 03F4  
                                         l3137 03D7                                           l3129 03C5  
                                         l3083 0392                                           l3075 0369  
                                         l3067 0343                                           l3059 031C  
                                         l2611 0EC5                                           l3171 0436  
                                         l3163 0419                                           l3155 0409  
                                         l3147 03FB                                           l3139 03D9  
                                         l2621 0FBA                                           l2701 05D0  
                                         l3085 0397                                           l3077 0372  
                                         l3069 0352                                           l2613 0ECB  
                                         l3181 0452                                           l3173 043D  
                                         l3165 0421                                           l3157 0412  
                                         l3149 0400                                           l2623 0FC1  
                                         l2711 05F9                                           l2703 05DC  
                                         l3239 03AB                                           l3087 039B  
                                         l3079 0381                                           l2615 0EBF  
                                         l3095 0ED8                                           l3191 046C  
                                         l3183 0457                                           l3175 0443  
                                         l3167 0429                                           l3159 0416  
                                         l2625 0FC5                                           l2801 0062  
                                         l2713 0601                                           l3089 03A0  
                                         l2617 0EB9                                           l2609 0ED1  
                                         l2641 0F42                                           l2633 0F3A  
                                         l3193 046D                                           l3185 045C  
                                         l3177 0449                                           l3169 042F  
                                         l2627 0FD0                                           l2619 0FB8  
                                         l2811 0078                                           l2803 006A  
                                         l2731 0626                                           l2723 060F  
                                         l2715 0603                                           l2707 05E5  
                                         l2651 0F68                                           l2643 0F49  
                                         l2635 0F3D                                           l3099 0EEA  
                                         l3195 0472                                           l3187 0461  
                                         l3179 044D                                           l2629 0FD5  
                                         l2901 023F                                           l2821 0094  
                                         l2813 007D                                           l2805 006F  
                                         l2733 0634                                           l2717 0607  
                                         l2725 061F                                           l2709 05F8  
                                         l2741 074B                                           l2661 0FA6  
                                         l2653 0F6B                                           l2645 0F60  
                                         l2637 0F3E                                           l3197 0484  
                                         l3189 0466                                           l2911 0271  
                                         l2903 0243                                           l2831 00B4  
                                         l2823 0099                                           l2815 0082  
                                         l2807 0073                                           l2735 0639  
                                         l2751 076A                                           l2743 074E  
                                         l2671 07F4                                           l2663 0FAD  
                                         l2655 0F70                                           l2647 0F63  
                                         l2639 0F40                                           l2921 028D  
                                         l2913 0273                                           l2905 0250  
                                         l2841 010F                                           l2833 00C1  
                                         l2825 009E                                           l2817 008A  
                                         l2809 0077                                           l2753 076E  
                                         l2745 0753                                           l2737 0742  
                                         l2673 07F7                                           l2665 0FB4  
                                         l2657 0F94                                           l2681 0EF7  
                                         l2649 0F66                                           l2915 0280  
                                         l2907 025A                                           l2851 0144  
                                         l2843 011C                                           l2835 00DB  
                                         l2819 008C                                           l2931 04AD  
                                         l2755 076F                                           l2747 0757  
                                         l2739 0745                                           l2771 07CE  
                                         l2763 07BC                                           l2675 07F8  
                                         l2667 07F0                                           l2659 0F9F  
                                         l2683 0EA8                                           l2917 0284  
                                         l2909 0268                                           l2861 0187  
                                         l2853 014B                                           l2845 0123  
                                         l2837 00E8                                           l2829 00A7  
                                         l2941 04D6                                           l2933 04BD  
                                         l2925 0494                                           l2757 0774  
                                         l2749 075B                                           l2773 07D2  
                                         l2765 07C2                                           l2781 07EB  
                                         l2685 0540                                           l2669 07F3  
                                         l2677 0EF3                                           l2919 0285  
                                         l2871 01DA                                           l2863 019B  
                                         l2855 015F                                           l2847 0130  
                                         l2839 0102                                           l2791 004D  
                                         l2951 0500                                           l2943 04DD  
                                         l2927 0499                                           l2759 077A  
                                         l2775 07DC                                           l2767 07C5  
                                         l2695 0FDB                                           l2679 0EF6  
                                         l2873 01E1                                           l2881 01F1  
                                         l2865 01B0                                           l2857 0166  
                                         l2849 0137                                           l2793 004E  
                                         l2785 003F                                           l2961 0531  
                                         l2953 0504                                           l2945 04E1  
                                         l2937 04C6                                           l2929 049D  
                                         l2777 07E0                                           l2769 07CA  
                                         l2689 05A4                                           l2697 0FE5  
                                         l2883 01F5                                           l2875 01E5  
                                         l2867 01C7                                           l2859 017A  
                                         l2795 0053                                           l2787 0045  
                                         l2963 0535                                           l2955 050E  
                                         l2947 04E9                                           l2939 04CB  
                                         l2779 07E5                                           l2699 0FF0  
                                         l2971 0F2B                                           l2893 0216  
                                         l2885 01F6                                           l2877 01E6  
                                         l2869 01CE                                           l2797 0058  
                                         l2789 0049                                           l2965 0536  
                                         l2957 0518                                           l2949 04F7  
                                         l2973 0F2C                                           l2895 021B  
                                         l2887 01FA                                           l2879 01ED  
                                         l2799 0060                                           l2959 052C  
                                         l2983 0EE0                                           l2975 0F31  
                                         l2991 0F53                                           l2897 0223  
                                         l2889 020E                                           l2985 0EE5  
                                         l2977 0F36                                           l2993 0F56  
                                         l2969 0EAB                                           l2987 0EA5  
                                         l2899 0227                                           l2979 0F38  
                                         l2995 0F59                                           l2997 0F5C  
                                         l2989 0F4D                                           l2999 0F77  
                                         u2000 060E                                           u2001 060D  
                                         u2020 061E                                           u2021 061D  
                                         u2030 0625                                           u2110 076A  
                                         u2031 0624                                           u2015 0610  
                                         u2111 0769                                           u2200 004D  
                                         u2201 004C                                           u2105 075C  
                                         u2210 0053                                           u2050 0634  
                                         u2130 077A                                           u2211 0052  
                                         u2051 0633                                           u2131 0779  
                                         u2115 0766                                           u2300 01A6  
                                         u2220 0058                                           u2060 0639  
                                         u2140 07C2                                           u2221 0057  
                                         u2061 0638                                           u2045 0627  
                                         u2125 0770                                           u2141 07C1  
                                         _LATA 010C                                           u2310 01BD  
                                         u2230 0077                                           u2070 074B  
                                         _LATB 010D                                           u2231 0076  
                                         u2071 074A                                           u2400 021B  
                                         u2240 007D                                           u2160 07D2  
                                         u2401 021A                                           u2305 01A2  
                                         u2241 007C                                           u2161 07D1  
                                         u2410 0227                                           u2250 0082  
                                         u2090 075B                                           u2170 07DC  
                                         u2411 0226                                           u2315 01B9  
                                         u2251 0081                                           u2091 075A  
                                         u2171 07DB                                           u2155 07C6  
                                         u2420 0235                                           u2340 01E5  
                                         u2260 0099                                           u2500 04DC  
                                         u2341 01E4                                           u2325 01C8  
                                         u2261 0098                                           u2501 04DB  
                                         u2085 074F                                           u2430 0250  
                                         u2270 009E                                           u2190 07EB  
                                         u2431 024F                                           u2335 01DB  
                                         u2271 009D                                           u2191 07EA  
                                         u2175 07D8                                           u2440 0268  
                                         u2360 01F5                                           u2520 04F6  
                                         u2600 0F31                                           u2441 0267  
                                         u2425 0231                                           u2361 01F4  
                                         u2521 04F5                                           u2185 07E1  
                                         u2601 0F30                                           u2450 0284  
                                         u2370 01FA                                           u2610 0F36  
                                         u2451 0283                                           u2435 024C  
                                         u2371 01F9                                           u2355 01E7  
                                         u2515 04EA                                           u2611 0F35  
                                         u1900 0FC5                                           u2380 020E  
                                         u2540 0504                                           u2460 0499  
                                         u2700 0352                                           u2620 0EE5  
                                         u1901 0FC4                                           u2445 0264  
                                         u2381 020D                                           u2285 011D  
                                         u2541 0503                                           u2461 0498  
                                         u2701 0351                                           u2621 0EE4  
                                         u2390 0215                                           u2550 050A  
                                         u2470 049D                                           u2710 0381  
                                         u2630 064E                                           u2391 0214  
                                         u2295 014C                                           u2551 0509  
                                         u2535 04FA                                           u2471 049C  
                                         u2711 0380                                           u2631 064D  
                                         u1920 0FD5                                           u2560 050E  
                                         u2480 04BD                                           u2640 0660  
                                         u2720 0400                                           u1921 0FD4  
                                         u2561 050D                                           u2481 04BC  
                                         u2641 065F                                           u2721 03FF  
                                         u2570 0522                                           u1930 0EFE  
                                         u2650 0684                                           u2730 0412  
                                         u1915 0FCA                                           u1931 0EFD  
                                         u2651 0683                                           u2731 0411  
                                         u2580 0531                                           u1940 0FE0  
                                         u2660 02A7                                           u2740 0421  
                                         u2581 0530                                           u1941 0FDF  
                                         u2661 02A6                                           u2741 0420  
                                         u2590 0535                                           u1950 0FEB  
                                         u2670 02D5                                           u2750 046C  
                                         u2591 0534                                           u2575 051E  
                                         u2495 04D0                                           u1951 0FEA  
                                         u2671 02D4                                           u2751 046B  
                                         u1960 0FF6                                           u2680 02FC  
                                         u1961 0FF5                                           u2681 02FB  
                                         u1970 05DC                                           u2690 032B  
                                         u1971 05DB                                           u2691 032A  
                                         u1980 05F2                                           u1990 0607  
                                         u1991 0606                                           i1l40 0F2A  
                                         u1985 05EE                                           i1l46 0003  
                                         _PLLR 04D6                                           _TMR6 041C  
                   Ds_Convertir_en_uni@voltaje 0023                                           _WPUA 020C  
                                         _WPUB 020D                                           _main 03C0  
                                         fsr0h 0005                                           fsr1h 0007  
                                         fsr0l 0004                                           indf1 0001  
                                         fsr1l 0006                                           btemp 007E  
                     __end_of_Ds_Conversor_ADC 07BC                        Ds_Encienda_Disp@dispNum 0073  
                                         start 0028                                  ?_EUSART_Write 0070  
               __size_of_OSCILLATOR_Initialize 000C                  __end_of_OSCILLATOR_Initialize 0EFF  
                                ___fltol@sign1 0077                                          ?_main 0070  
                              __end_of___flmul 0296                                __end_of___fltol 0645  
                                        _T6CON 041E                                __end_of___lwdiv 077F  
                                        i1l212 0F1B                                          i1l301 0F0C  
                                        i1l304 0EB2                                          i1l218 0002  
                              __end_of___lwmod 07F0                                          i1l604 0018  
                                        i1l605 0026                                          i1l199 0EB8  
                                        i1l609 0026                                          _RCREG 0199  
                                        _RCSTA 019D                                          _TRISA 008C  
                                        _TRISB 008D                                          _TXREG 019A  
                                        _TXSTA 019E               __size_of_ADC_GetConversionResult 0006  
                            ?_Ds_Encienda_Disp 0070              __size_of_TMR6_SetInterruptHandler 0006  
                               Ds_BCD@segmento 0075                      ?_TMR6_SetInterruptHandler 0073  
                             __end_of_TMR6_ISR 0F2B                             ??_Ds_Encienda_Disp 0073  
                               _WDT_Initialize 0EA8                                          pclath 000A  
                                        status 0003                                          wtemp0 007E  
                                 main@volt_ADC 00A2                    __end_of_Tm_Inicie_periodico 0F94  
               ??_TMR6_DefaultInterruptHandler 0070                                __initialization 002A  
                          _Ds_Procese_displays 0296                                   __end_of_main 0492  
                            _Tm_Baje_periodico 0EE9                                 ??_EUSART_Write 0073  
                                    ??_ADC_ISR 0073                    ?_INTERRUPT_InterruptManager 0070  
                           ?_Tm_Baje_periodico 0070                                         ??_main 0055  
                 __size_of_Ds_Iniciar_displays 003F                         __end_of_WDT_Initialize 0EAB  
                              _TMR6_Initialize 0F3A                            ??_Tm_Baje_periodico 0073  
                         ?_Ds_Procese_displays 0070              _EUSART_DefaultFramingErrorHandler 0000  
                                       _ADCON0 009D                                         _ADCON1 009E  
                   _EUSART_OverrunErrorHandler 00C1                                         _ADRESH 009C  
                                       _ADRESL 009B                                         _ANSELA 018C  
                                       _ANSELB 018D                                         _BORCON 0116  
                                       i1l2025 0EFF                                         i1l2027 0F07  
                                       i1l2029 0EAE                                         i1l2321 0F25  
                                       i1l2341 0F0D                                         i1l2317 0F1C  
                                       i1l2343 0F0F                                         i1l2319 0F1E  
                                       i1l2345 0F16                                         i1l2561 000F  
                                       i1l2563 0014                                         i1l2565 001D  
                                       i1l2557 0006                                         i1l2567 0022  
                                       i1l2559 000A                                         i1l1955 0EB3  
                                       u171_20 0F16                                         u171_21 0F15  
                   __end_of_EUSART_is_tx_ready 0F3A                                         u167_20 0F25  
                                       u167_21 0F24                                         u185_20 000A  
                                       u185_21 0009                                         u186_20 000F  
                                       u186_21 000E                                         u187_20 0014  
                                       u187_21 0013                                         u188_20 001D  
                                       u188_21 001C                                         u189_20 0022  
                                       u189_21 0021                                         _OSCCON 0099  
                                       _SPBRGH 019C                                         _SPBRGL 019B  
                                       _WDTCON 0097                               __end_of___xxtofl 053F  
                                       _Ds_BCD 053F                      __end_of_Tm_Baje_periodico 0EF3  
         __size_of_ADC_DefaultInterruptHandler 0001               __size_of_ADC_SetInterruptHandler 0006  
                                    ??___flmul 0032                                      ??___fltol 0048  
                            _Tm_Hubo_periodico 0ED7                                      ??___lwdiv 0077  
                                    ??___lwmod 0077                             ?_Tm_Hubo_periodico 0070  
                                main@valor_ADC 00A0                                  main@seven_seg 00B3  
                                main@timer_1ms 00AA                             __size_of__Umul8_16 0024  
                              ?_WDT_Initialize 0070                          ??_Ds_Procese_displays 0076  
                          ??_Tm_Hubo_periodico 0073        ADC_SetInterruptHandler@InterruptHandler 0073  
     TMR6_SetInterruptHandler@InterruptHandler 0073                                   ___xxtofl@arg 0026  
                                 ___xxtofl@exp 0025                              _SYSTEM_Initialize 0F4D  
                                 ___xxtofl@val 0073                        __end_of__initialization 003B  
                        Ds_Iniciar_displays@d1 0073                          Ds_Iniciar_displays@d2 0074  
                        Ds_Iniciar_displays@d3 0075                          Ds_Iniciar_displays@tA 0077  
                        Ds_Iniciar_displays@tE 0076                             ?_SYSTEM_Initialize 0070  
                              _TMR6_StartTimer 0EAB                                     ___fltol@f1 0044  
                    __end_of_Tm_Hubo_periodico 0EDF                   __size_of_ADC_StartConversion 0003  
                               __pcstackCOMMON 0070                            ??_SYSTEM_Initialize 0075  
                                    ?_TMR6_ISR 0070                        __end_of_TMR6_Initialize 0F4D  
                    __size_of_Interrupcion_ADC 000E                        _ADC_GetConversionResult 0EB3  
                               _OPTION_REGbits 0095                ??_EUSART_SetOverrunErrorHandler 0075  
                    __end_of_SYSTEM_Initialize 0F60                                     __pbssBANK0 0056  
                                   __pbssBANK1 00BB                           __end_of_EUSART_Write 0EE9  
                                      ?_Ds_BCD 0070                              ?_Ds_Conversor_ADC 004D  
                            __end_of__Umul8_16 0FDA                                     __pmaintext 03C0  
                           ??_Ds_Conversor_ADC 0079                     __size_of_Tm_Baje_periodico 000A  
             __end_of_TMR6_SetInterruptHandler 0ED7                                     ??_TMR6_ISR 0071  
                                   __pintentry 0004                                        _ADC_ISR 0F0D  
                                      _BAUDCON 019F                                        _APFCON0 011D  
                                      _APFCON1 011E                    __size_of_Interrupcion_timer 0005  
                      __size_of_ADC_Initialize 0010                                      ?___xxtofl 0073  
                 __size_of_Ds_Convertir_en_uni 005E                                        _OSCTUNE 0098  
                     ??_EUSART_SetErrorHandler 0075                        __end_of_TMR6_StartTimer 0EAE  
                            _Tm_Procese_tiempo 0645                             ?_Tm_Procese_tiempo 0070  
                          _Ds_Iniciar_displays 0703                                __size_of_Ds_BCD 0091  
                    __size_of_Ds_Encienda_Disp 0026                           _ADC_InterruptHandler 00BD  
                      _ADC_SetInterruptHandler 0EB9                            ??_Tm_Procese_tiempo 0073  
                   __size_of_Tm_Hubo_periodico 0008                                        ___flmul 003F  
                                      ___fltol 05D0                                        ___lwdiv 0742  
                                      ___lwmod 07BC                      ??_ADC_GetConversionResult 0072  
                             ?_TMR6_Initialize 0070                                        __ptext1 0645  
                                      __ptext2 0F76                                        __ptext3 0ED7  
                                      __ptext4 0EE9                                        __ptext5 0EAB  
                                      __ptext6 0F4D                                        __ptext7 0EA8  
                                      __ptext8 0F3A                                        __ptext9 0ED1  
                         ?_Ds_Iniciar_displays 0073                          _OSCILLATOR_Initialize 0EF3  
                                   ??___xxtofl 0020                                        _num_ADC 00BB  
                     ??_PIN_MANAGER_Initialize 0073                      __end_of_Tm_Procese_tiempo 06A5  
                                    _T6CONbits 041E                     __size_of_SYSTEM_Initialize 0013  
                         end_of_initialization 003B                      Ds_Conversor_ADC@pendiente 004F  
        __end_of_EUSART_SetOverrunErrorHandler 0ED1         __size_of_EUSART_SetOverrunErrorHandler 0006  
                _EUSART_SetOverrunErrorHandler 0ECB                         Ds_Procese_displays@dsp 0078  
                            _EUSART_Initialize 0F94                             ?_EUSART_Initialize 0070  
                                    _RCSTAbits 019D                         Ds_Conversor_ADC@adcOUT 004D  
                           _EUSART_is_tx_ready 0F2B                   __size_of_Tm_Inicie_periodico 001E  
                          ??_EUSART_Initialize 0075                               ??_WDT_Initialize 0073  
                                   _timer_flag 0079                          ??_Ds_Iniciar_displays 0078  
                             _Interrupcion_ADC 0EFF                       _TMR6_SetInterruptHandler 0ED1  
                          ?_EUSART_is_tx_ready 0070            __end_of_ADC_DefaultInterruptHandler 0003  
                  _ADC_DefaultInterruptHandler 0002                                  ___xxtofl@sign 0024  
                        __size_of_EUSART_Write 000A                            _ADC_StartConversion 0EA5  
                       Ds_Iniciar_displays@dsp 0020                __size_of_EUSART_SetErrorHandler 0006  
                             ?_TMR6_StartTimer 0070                                    ___flmul@grs 0039  
                    __end_of_EUSART_Initialize 0FB6                  ??_ADC_DefaultInterruptHandler 0070  
                    ??_ADC_SetInterruptHandler 0075                           ??_EUSART_is_tx_ready 0073  
                                    _TXSTAbits 019E                                 __end_of_Ds_BCD 05D0  
                         ?_ADC_StartConversion 0070                     _EUSART_DefaultErrorHandler 0000  
                                 _EUSART_Write 0EDF                    __end_of_Ds_Procese_displays 03C0  
                               _ADC_Initialize 07F0                              __size_of_TMR6_ISR 000F  
                       ?_OSCILLATOR_Initialize 0070                           Tm_Procese_tiempo@ctp 0077  
                          start_initialization 002A                     __size_of_Tm_Procese_tiempo 0060  
              __size_of_PIN_MANAGER_Initialize 0016                         _EUSART_is_tx_ready$336 0073  
                                     ??_Ds_BCD 0073                               _Ds_Encienda_Disp 0FDA  
                          _Ds_Convertir_en_uni 06A5                 ?_EUSART_SetOverrunErrorHandler 0073  
                        ??_ADC_StartConversion 0073                         Tm_Inicie_periodico@ctp 0076  
                   _EUSART_FramingErrorHandler 00C3                         _EUSART_SetErrorHandler 0EBF  
                       __end_of_ADC_Initialize 0800                                      __Umul8_16 0FB6  
                                     ?_ADC_ISR 0070                      __size_of_Ds_Conversor_ADC 003D  
                         ?_Ds_Convertir_en_uni 0023                                      ___flmul@a 002E  
                                    ___flmul@b 002A                                    __pbssCOMMON 0079  
                                    ___latbits 0001                                  __pcstackBANK0 0020  
                                __pcstackBANK1 00A0                              __size_of___xxtofl 00AD  
                   __size_of_EUSART_Initialize 0022                          _TMR6_InterruptHandler 00C5  
                             ___lwdiv@dividend 0075                         _PIN_MANAGER_Initialize 0F60  
                   __end_of_Interrupcion_timer 0EB3                                       ?___flmul 002A  
                                     ?___fltol 0044                                     ?__Umul8_16 0073  
                                     ?___lwdiv 0073                                       ?___lwmod 0073  
                              ?_ADC_Initialize 0070                   ??_INTERRUPT_InterruptManager 0073  
                        ??_Ds_Convertir_en_uni 0025                                       _ADC_flag 0056  
                             ___lwdiv@quotient 0021                            _Tm_Inicie_periodico 0F76  
                     __end_of_Interrupcion_ADC 0F0D                                       _LATAbits 010C  
       EUSART_SetErrorHandler@interruptHandler 0073                                       _LATBbits 010D  
                                     _PIE1bits 0091                                       _PIE3bits 0093  
                            _eusartRxLastError 007A            __size_of_INTERRUPT_InterruptManager 0024  
                                     _PIR1bits 0011                ??_EUSART_SetFramingErrorHandler 0075  
                                     _PIR3bits 0013                     ??_TMR6_SetInterruptHandler 0075  
                         ?_Tm_Inicie_periodico 0073              _EUSART_DefaultOverrunErrorHandler 0000  
                                     _TMR6_ISR 0F1C                               __size_of_ADC_ISR 000F  
                                   _ADCON0bits 009D                       __size_of_TMR6_Initialize 0013  
                     ?_ADC_GetConversionResult 0070                         Ds_Convertir_en_uni@dsp 0026  
                        ??_Tm_Inicie_periodico 0075                    __end_of_Ds_Iniciar_displays 0742  
                      ??_OSCILLATOR_Initialize 0073                                    ??__Umul8_16 0075  
                          _EUSART_ErrorHandler 00BF                               __size_of___flmul 0257  
                             __size_of___fltol 0075                               __size_of___lwdiv 003D  
                             __size_of___lwmod 0034                               _Ds_Conversor_ADC 077F  
                     __end_of_Ds_Encienda_Disp 1000                     Tm_Inicie_periodico@periodo 0073  
                                     ___xxtofl 0492                                ___lwdiv@divisor 0073  
                              ___lwdiv@counter 0020                                       __ptext10 0F60  
                                     __ptext11 0EF3                                       __ptext20 0296  
                                     __ptext12 0F94                                       __ptext21 0FDA  
                                     __ptext13 0ECB                                       __ptext30 003F  
                                     __ptext22 053F                                       __ptext14 0EC5  
                                     __ptext31 0FB6                                       __ptext23 0703  
                                     __ptext15 0EBF                                       __ptext40 0EB3  
                                     __ptext32 0EA5                                       __ptext24 06A5  
                                     __ptext16 07F0                                       __ptext25 07BC  
                                     __ptext17 0EB9                                       __ptext34 0F1C  
                                     __ptext26 0742                                       __ptext18 0F2B  
                                     __ptext35 0EAE                                       __ptext27 077F  
                                     __ptext19 0EDF                                       __ptext36 0003  
                                     __ptext28 0492                                       __ptext37 0F0D  
                                     __ptext29 05D0                                       __ptext38 0002  
                                     __ptext39 0EFF                                  __size_of_main 00D2  
                  __size_of_EUSART_is_tx_ready 000F                        ?_EUSART_SetErrorHandler 0073  
                         Tm_Baje_periodico@ctp 0074                       __size_of_TMR6_StartTimer 0003  
EUSART_SetOverrunErrorHandler@interruptHandler 0073                                       int$flags 007E  
                                     main@Pack 00A4             __end_of_INTERRUPT_InterruptManager 0028  
                   _INTERRUPT_InterruptManager 0004          __end_of_EUSART_SetFramingErrorHandler 0ECB  
       __size_of_EUSART_SetFramingErrorHandler 0006                  _EUSART_SetFramingErrorHandler 0EC5  
                                   _INTCONbits 000B                   __size_of_Ds_Procese_displays 012A  
                         Tm_Hubo_periodico@ctp 0073           __end_of_TMR6_DefaultInterruptHandler 0004  
        __size_of_TMR6_DefaultInterruptHandler 0001                   _TMR6_DefaultInterruptHandler 0003  
                     ?_ADC_SetInterruptHandler 0073                        __size_of_WDT_Initialize 0003  
                                     intlevel1 0000                    __end_of_ADC_StartConversion 0EA8  
                             ___lwmod@dividend 0075                        ?_PIN_MANAGER_Initialize 0070  
                            ??_TMR6_Initialize 0075                __end_of_ADC_GetConversionResult 0EB9  
               __end_of_EUSART_SetErrorHandler 0EC5                               ??_ADC_Initialize 0075  
EUSART_SetFramingErrorHandler@interruptHandler 0073                         __Umul8_16@multiplicand 0073  
                              ___lwmod@divisor 0073                                ___lwmod@counter 0078  
                           _Interrupcion_timer 0EAE                        Ds_Conversor_ADC@voltios 0053  
                           EUSART_Write@txData 0073                 __end_of_PIN_MANAGER_Initialize 0F76  
                ?_TMR6_DefaultInterruptHandler 0070                            ?_Interrupcion_timer 0070  
                         __Umul8_16@multiplier 0024                              ?_Interrupcion_ADC 0070  
                           ??_Interrupcion_ADC 0072                              __Umul8_16@product 0020  
